(dp1
S'name'
p2
S'wn_opt/wn_ADADELTA_7'
p3
sS'producer'
p4
NsS'ratios_violating_examples_per_epoch'
p5
(lp6
(lp7
cnumpy.core.multiarray
_reconstruct
p8
(cnumpy
ndarray
p9
(I0
tS'b'
tRp10
(I1
(tcnumpy
dtype
p11
(S'f8'
I0
I1
tRp12
(I3
S'<'
NNNI-1
I-1
I0
tbI00
S'\n\xe3l\n\xe3,\xea?'
tbag8
(g9
(I0
tS'b'
tRp13
(I1
(tg12
I00
S'2Y\xcf1Y\x8f\xe9?'
tbag8
(g9
(I0
tS'b'
tRp14
(I1
(tg12
I00
S'\xb4)\x8c\xb3)\xcc\xe8?'
tbag8
(g9
(I0
tS'b'
tRp15
(I1
(tg12
I00
S'\x11%`\x11%`\xe7?'
tbag8
(g9
(I0
tS'b'
tRp16
(I1
(tg12
I00
S'\x91\xdf\xcb\x90\xdf\xcb\xe5?'
tbag8
(g9
(I0
tS'b'
tRp17
(I1
(tg12
I00
S'*\x8c\xb3)\x8c\xf3\xe4?'
tbag8
(g9
(I0
tS'b'
tRp18
(I1
(tg12
I00
S'r6\x85q6E\xe4?'
tbag8
(g9
(I0
tS'b'
tRp19
(I1
(tg12
I00
S"vb'vbg\xe3?"
tbag8
(g9
(I0
tS'b'
tRp20
(I1
(tg12
I00
S'\xd5\xe8#\xd5\xe8\xe3\xe2?'
tbag8
(g9
(I0
tS'b'
tRp21
(I1
(tg12
I00
S'G\x1f\xa9F\x1fi\xe2?'
tbaa(lp22
g8
(g9
(I0
tS'b'
tRp23
(I1
(tg12
I00
S'\xd2G\xaa\xd1G*\xdb?'
tbag8
(g9
(I0
tS'b'
tRp24
(I1
(tg12
I00
S'\x0f\x0f\x0f\x0f\x0f\x0f\xdc?'
tbag8
(g9
(I0
tS'b'
tRp25
(I1
(tg12
I00
S'\x91\xdf\xcb\x90\xdfK\xdb?'
tbag8
(g9
(I0
tS'b'
tRp26
(I1
(tg12
I00
S'\x82\xd0\xbc\x81\xd0\xbc\xdb?'
tbag8
(g9
(I0
tS'b'
tRp27
(I1
(tg12
I00
S'\xcaz\x8e\xc9z\x0e\xdb?'
tbag8
(g9
(I0
tS'b'
tRp28
(I1
(tg12
I00
S'}\xa4\x1a}\xa4\x1a\xdb?'
tbag8
(g9
(I0
tS'b'
tRp29
(I1
(tg12
I00
S'4o 4o\xa0\xda?'
tbag8
(g9
(I0
tS'b'
tRp30
(I1
(tg12
I00
S'tL\xd6sLV\xda?'
tbag8
(g9
(I0
tS'b'
tRp31
(I1
(tg12
I00
S'\xd6sL\xd6s\xcc\xd9?'
tbag8
(g9
(I0
tS'b'
tRp32
(I1
(tg12
I00
S'\x84\xe6\r\x84\xe6\r\xd9?'
tbaa(lp33
g8
(g9
(I0
tS'b'
tRp34
(I1
(tg12
I00
S'J\xc0"J\xc0"\xd3?'
tbag8
(g9
(I0
tS'b'
tRp35
(I1
(tg12
I00
S'\x94\x80E\x94\x80E\xd3?'
tbag8
(g9
(I0
tS'b'
tRp36
(I1
(tg12
I00
S'\xb8U.\xb8U\xae\xd3?'
tbag8
(g9
(I0
tS'b'
tRp37
(I1
(tg12
I00
S'\xaer\xc1\xadr\xc1\xd3?'
tbag8
(g9
(I0
tS'b'
tRp38
(I1
(tg12
I00
S'\xda\x14\xc6\xd9\x14\xc6\xd3?'
tbag8
(g9
(I0
tS'b'
tRp39
(I1
(tg12
I00
S'\xb4)\x8c\xb3)\x0c\xd4?'
tbag8
(g9
(I0
tS'b'
tRp40
(I1
(tg12
I00
S'\x7f\xbak\x7f\xba\xeb\xd3?'
tbag8
(g9
(I0
tS'b'
tRp41
(I1
(tg12
I00
S"vb'vb\xa7\xd3?"
tbag8
(g9
(I0
tS'b'
tRp42
(I1
(tg12
I00
S'\xc1\xadr\xc1\xad\xf2\xd3?'
tbag8
(g9
(I0
tS'b'
tRp43
(I1
(tg12
I00
S'\xb2\x9ec\xb2\x9e\xe3\xd3?'
tbaa(lp44
g8
(g9
(I0
tS'b'
tRp45
(I1
(tg12
I00
S'd\xb2\x9ec\xb2\x9e\xcd?'
tbag8
(g9
(I0
tS'b'
tRp46
(I1
(tg12
I00
S'\xb5\xb4\xb4\xb4\xb4\xb4\xcc?'
tbag8
(g9
(I0
tS'b'
tRp47
(I1
(tg12
I00
S'\xcf1Y\xcf1Y\xcc?'
tbag8
(g9
(I0
tS'b'
tRp48
(I1
(tg12
I00
S'\x0cn\x95\x0bn\x95\xcd?'
tbag8
(g9
(I0
tS'b'
tRp49
(I1
(tg12
I00
S'\xf3\x06B\xf3\x06B\xcd?'
tbag8
(g9
(I0
tS'b'
tRp50
(I1
(tg12
I00
S'\x97\x96\x96\x96\x96\x96\xcd?'
tbag8
(g9
(I0
tS'b'
tRp51
(I1
(tg12
I00
S'\xf2{\x19\xf2{\x19\xcd?'
tbag8
(g9
(I0
tS'b'
tRp52
(I1
(tg12
I00
S'\xf82\xe4\xf72\xe4\xcc?'
tbag8
(g9
(I0
tS'b'
tRp53
(I1
(tg12
I00
S'\x94\x80E\x94\x80E\xcd?'
tbag8
(g9
(I0
tS'b'
tRp54
(I1
(tg12
I00
S'\xcb\x05\xb7\xca\x05\xb7\xcc?'
tbaa(lp55
g8
(g9
(I0
tS'b'
tRp56
(I1
(tg12
I00
S'\x7f\xbak\x7f\xbak\xc6?'
tbag8
(g9
(I0
tS'b'
tRp57
(I1
(tg12
I00
S'\x18gS\x18gS\xc6?'
tbag8
(g9
(I0
tS'b'
tRp58
(I1
(tg12
I00
S'\x18gS\x18gS\xc6?'
tbag8
(g9
(I0
tS'b'
tRp59
(I1
(tg12
I00
S'O\xec\xc4N\xec\xc4\xc5?'
tbag8
(g9
(I0
tS'b'
tRp60
(I1
(tg12
I00
S'\x15\xc6\xd9\x14\xc6\xd9\xc5?'
tbag8
(g9
(I0
tS'b'
tRp61
(I1
(tg12
I00
S'\xf3\x06B\xf3\x06B\xc6?'
tbag8
(g9
(I0
tS'b'
tRp62
(I1
(tg12
I00
S'\xe1V\xb9\xe0V\xb9\xc5?'
tbag8
(g9
(I0
tS'b'
tRp63
(I1
(tg12
I00
S'tL\xd6sL\xd6\xc5?'
tbag8
(g9
(I0
tS'b'
tRp64
(I1
(tg12
I00
S'\xbd\x81\xd0\xbc\x81\xd0\xc5?'
tbag8
(g9
(I0
tS'b'
tRp65
(I1
(tg12
I00
S'\xe9#\xd5\xe8#\xd5\xc5?'
tbaa(lp66
g8
(g9
(I0
tS'b'
tRp67
(I1
(tg12
I00
S'\xad\xe7\x98\xac\xe7\x98\xc0?'
tbag8
(g9
(I0
tS'b'
tRp68
(I1
(tg12
I00
S'\x92j\xf4\x91j\xf4\xc0?'
tbag8
(g9
(I0
tS'b'
tRp69
(I1
(tg12
I00
S'\xe9#\xd5\xe8#\xd5\xc0?'
tbag8
(g9
(I0
tS'b'
tRp70
(I1
(tg12
I00
S'{\x8e\xc9z\x8e\xc9\xc0?'
tbag8
(g9
(I0
tS'b'
tRp71
(I1
(tg12
I00
S'D\tXD\tX\xc1?'
tbag8
(g9
(I0
tS'b'
tRp72
(I1
(tg12
I00
S'\x18gS\x18gS\xc1?'
tbag8
(g9
(I0
tS'b'
tRp73
(I1
(tg12
I00
S'tL\xd6sL\xd6\xc1?'
tbag8
(g9
(I0
tS'b'
tRp74
(I1
(tg12
I00
S',\xa2\x04,\xa2\x04\xc2?'
tbag8
(g9
(I0
tS'b'
tRp75
(I1
(tg12
I00
S'l\x7f\xbak\x7f\xba\xc1?'
tbag8
(g9
(I0
tS'b'
tRp76
(I1
(tg12
I00
S'\x9cMa\x9cMa\xc1?'
tbaa(lp77
g8
(g9
(I0
tS'b'
tRp78
(I1
(tg12
I00
S'\xcb\x05\xb7\xca\x05\xb7\xbc?'
tbag8
(g9
(I0
tS'b'
tRp79
(I1
(tg12
I00
S'a\x9cMa\x9cM\xbb?'
tbag8
(g9
(I0
tS'b'
tRp80
(I1
(tg12
I00
S'~/C~/C\xbc?'
tbag8
(g9
(I0
tS'b'
tRp81
(I1
(tg12
I00
S'I5\xfaH5\xfa\xbc?'
tbag8
(g9
(I0
tS'b'
tRp82
(I1
(tg12
I00
S'\xf2{\x19\xf2{\x19\xbe?'
tbag8
(g9
(I0
tS'b'
tRp83
(I1
(tg12
I00
S'h\xde@h\xde@\xbe?'
tbag8
(g9
(I0
tS'b'
tRp84
(I1
(tg12
I00
S'xxxxxx\xbe?'
tbag8
(g9
(I0
tS'b'
tRp85
(I1
(tg12
I00
S'\x18gS\x18gS\xbe?'
tbag8
(g9
(I0
tS'b'
tRp86
(I1
(tg12
I00
S'\x8a\x9d\xd8\x89\x9d\xd8\xbd?'
tbag8
(g9
(I0
tS'b'
tRp87
(I1
(tg12
I00
S'\xd4]\xfb\xd3]\xfb\xbd?'
tbaa(lp88
g8
(g9
(I0
tS'b'
tRp89
(I1
(tg12
I00
S'D\tXD\tX\xb8?'
tbag8
(g9
(I0
tS'b'
tRp90
(I1
(tg12
I00
S'\xe8\x98\xac\xe7\x98\xac\xb9?'
tbag8
(g9
(I0
tS'b'
tRp91
(I1
(tg12
I00
S'1\xce\xa60\xce\xa6\xb8?'
tbag8
(g9
(I0
tS'b'
tRp92
(I1
(tg12
I00
S'\x00\x00\x00\x00\x00\x00\xb8?'
tbag8
(g9
(I0
tS'b'
tRp93
(I1
(tg12
I00
S'\x86\xfc^\x86\xfc^\xba?'
tbag8
(g9
(I0
tS'b'
tRp94
(I1
(tg12
I00
S'R\x8d>R\x8d>\xba?'
tbag8
(g9
(I0
tS'b'
tRp95
(I1
(tg12
I00
S'\x07B\xf3\x06B\xf3\xba?'
tbag8
(g9
(I0
tS'b'
tRp96
(I1
(tg12
I00
S'\xdb\x9f\xee\xda\x9f\xee\xba?'
tbag8
(g9
(I0
tS'b'
tRp97
(I1
(tg12
I00
S'\xda\x14\xc6\xd9\x14\xc6\xb9?'
tbag8
(g9
(I0
tS'b'
tRp98
(I1
(tg12
I00
S'\xdb\x9f\xee\xda\x9f\xee\xba?'
tbaa(lp99
g8
(g9
(I0
tS'b'
tRp100
(I1
(tg12
I00
S'\xcf1Y\xcf1Y\xb5?'
tbag8
(g9
(I0
tS'b'
tRp101
(I1
(tg12
I00
S'\x11%`\x11%`\xb5?'
tbag8
(g9
(I0
tS'b'
tRp102
(I1
(tg12
I00
S'KKKKKK\xb5?'
tbag8
(g9
(I0
tS'b'
tRp103
(I1
(tg12
I00
S'V.\xb8U.\xb8\xb5?'
tbag8
(g9
(I0
tS'b'
tRp104
(I1
(tg12
I00
S"vb'vb'\xb6?"
tbag8
(g9
(I0
tS'b'
tRp105
(I1
(tg12
I00
S'\xec\xc4N\xec\xc4N\xb6?'
tbag8
(g9
(I0
tS'b'
tRp106
(I1
(tg12
I00
S'\x00\x00\x00\x00\x00\x00\xb8?'
tbag8
(g9
(I0
tS'b'
tRp107
(I1
(tg12
I00
S'\xd5\xe8#\xd5\xe8#\xb7?'
tbag8
(g9
(I0
tS'b'
tRp108
(I1
(tg12
I00
S' 4o 4o\xb8?'
tbag8
(g9
(I0
tS'b'
tRp109
(I1
(tg12
I00
S'\xce\xa60\xce\xa60\xb8?'
tbaa(lp110
g8
(g9
(I0
tS'b'
tRp111
(I1
(tg12
I00
S'\x91\xdf\xcb\x90\xdf\xcb\xb2?'
tbag8
(g9
(I0
tS'b'
tRp112
(I1
(tg12
I00
S'\xd3\xd2\xd2\xd2\xd2\xd2\xb2?'
tbag8
(g9
(I0
tS'b'
tRp113
(I1
(tg12
I00
S'\xd7\xfet\xd7\xfet\xb3?'
tbag8
(g9
(I0
tS'b'
tRp114
(I1
(tg12
I00
S'\x86\xfc^\x86\xfc^\xb4?'
tbag8
(g9
(I0
tS'b'
tRp115
(I1
(tg12
I00
S'\xe2\xe1\xe1\xe1\xe1\xe1\xb3?'
tbag8
(g9
(I0
tS'b'
tRp116
(I1
(tg12
I00
S'R\x8d>R\x8d>\xb4?'
tbag8
(g9
(I0
tS'b'
tRp117
(I1
(tg12
I00
S'3\xe4\xf72\xe4\xf7\xb4?'
tbag8
(g9
(I0
tS'b'
tRp118
(I1
(tg12
I00
S'Na\x9cMa\x9c\xb5?'
tbag8
(g9
(I0
tS'b'
tRp119
(I1
(tg12
I00
S'\xab\\p\xab\\p\xb5?'
tbag8
(g9
(I0
tS'b'
tRp120
(I1
(tg12
I00
S'\xaf\xfd\xe9\xae\xfd\xe9\xb4?'
tbaa(lp121
g8
(g9
(I0
tS'b'
tRp122
(I1
(tg12
I00
S'\x9a7\x10\x9a7\x10\xb2?'
tbag8
(g9
(I0
tS'b'
tRp123
(I1
(tg12
I00
S'\xdc*\x17\xdc*\x17\xb2?'
tbag8
(g9
(I0
tS'b'
tRp124
(I1
(tg12
I00
S'\x8c\xb3)\x8c\xb3)\xb2?'
tbag8
(g9
(I0
tS'b'
tRp125
(I1
(tg12
I00
S'ZZZZZZ\xb2?'
tbag8
(g9
(I0
tS'b'
tRp126
(I1
(tg12
I00
S'\x89\x12\xb0\x88\x12\xb0\xb2?'
tbag8
(g9
(I0
tS'b'
tRp127
(I1
(tg12
I00
S'\xb6?\xdd\xb5?\xdd\xb3?'
tbag8
(g9
(I0
tS'b'
tRp128
(I1
(tg12
I00
S'Na\x9cMa\x9c\xb3?'
tbag8
(g9
(I0
tS'b'
tRp129
(I1
(tg12
I00
S'\xd5\xe8#\xd5\xe8#\xb3?'
tbag8
(g9
(I0
tS'b'
tRp130
(I1
(tg12
I00
S'\x90T\xa3\x8fT\xa3\xb3?'
tbag8
(g9
(I0
tS'b'
tRp131
(I1
(tg12
I00
S'\xa8\xbb\xf6\xa7\xbb\xf6\xb3?'
tbaa(lp132
g8
(g9
(I0
tS'b'
tRp133
(I1
(tg12
I00
S"b'vb'v\xb0?"
tbag8
(g9
(I0
tS'b'
tRp134
(I1
(tg12
I00
S'\xe5\x82[\xe5\x82[\xb1?'
tbag8
(g9
(I0
tS'b'
tRp135
(I1
(tg12
I00
S'\x1f\xa9F\x1f\xa9F\xb1?'
tbag8
(g9
(I0
tS'b'
tRp136
(I1
(tg12
I00
S'z\x03\xa1y\x03\xa1\xb1?'
tbag8
(g9
(I0
tS'b'
tRp137
(I1
(tg12
I00
S'\xb6?\xdd\xb5?\xdd\xb1?'
tbag8
(g9
(I0
tS'b'
tRp138
(I1
(tg12
I00
S'\x14;\xb1\x13;\xb1\xb1?'
tbag8
(g9
(I0
tS'b'
tRp139
(I1
(tg12
I00
S'\xd5\xe8#\xd5\xe8#\xb3?'
tbag8
(g9
(I0
tS'b'
tRp140
(I1
(tg12
I00
S"vb'vb'\xb2?"
tbag8
(g9
(I0
tS'b'
tRp141
(I1
(tg12
I00
S' 4o 4o\xb2?'
tbag8
(g9
(I0
tS'b'
tRp142
(I1
(tg12
I00
S'\xfb\xd3]\xfb\xd3]\xb3?'
tbaa(lp143
g8
(g9
(I0
tS'b'
tRp144
(I1
(tg12
I00
S'\xdb\x9f\xee\xda\x9f\xee\xae?'
tbag8
(g9
(I0
tS'b'
tRp145
(I1
(tg12
I00
S'\xf2{\x19\xf2{\x19\xb0?'
tbag8
(g9
(I0
tS'b'
tRp146
(I1
(tg12
I00
S'n\x95\x0bn\x95\x0b\xb0?'
tbag8
(g9
(I0
tS'b'
tRp147
(I1
(tg12
I00
S'\n\xe3l\n\xe3l\xb0?'
tbag8
(g9
(I0
tS'b'
tRp148
(I1
(tg12
I00
S'\xde@h\xde@h\xb0?'
tbag8
(g9
(I0
tS'b'
tRp149
(I1
(tg12
I00
S'\x01\x8b(\x01\x8b(\xb1?'
tbag8
(g9
(I0
tS'b'
tRp150
(I1
(tg12
I00
S'\xd1\xbc\x81\xd0\xbc\x81\xb0?'
tbag8
(g9
(I0
tS'b'
tRp151
(I1
(tg12
I00
S'\x1e\x1e\x1e\x1e\x1e\x1e\xb2?'
tbag8
(g9
(I0
tS'b'
tRp152
(I1
(tg12
I00
S'\xb9\xe0V\xb9\xe0V\xb1?'
tbag8
(g9
(I0
tS'b'
tRp153
(I1
(tg12
I00
S'\xab\\p\xab\\p\xb1?'
tbaa(lp154
g8
(g9
(I0
tS'b'
tRp155
(I1
(tg12
I00
S'\x9e\xd8\x89\x9d\xd8\x89\xad?'
tbag8
(g9
(I0
tS'b'
tRp156
(I1
(tg12
I00
S'\x0e\x84\xe6\r\x84\xe6\xad?'
tbag8
(g9
(I0
tS'b'
tRp157
(I1
(tg12
I00
S'\xa2\x04,\xa2\x04,\xae?'
tbag8
(g9
(I0
tS'b'
tRp158
(I1
(tg12
I00
S'\x98!\xbf\x97!\xbf\xaf?'
tbag8
(g9
(I0
tS'b'
tRp159
(I1
(tg12
I00
S'\x9e\xd8\x89\x9d\xd8\x89\xad?'
tbag8
(g9
(I0
tS'b'
tRp160
(I1
(tg12
I00
S'\xc4\xc3\xc3\xc3\xc3\xc3\xaf?'
tbag8
(g9
(I0
tS'b'
tRp161
(I1
(tg12
I00
S'\x98!\xbf\x97!\xbf\xaf?'
tbag8
(g9
(I0
tS'b'
tRp162
(I1
(tg12
I00
S'\xec\xc4N\xec\xc4N\xb0?'
tbag8
(g9
(I0
tS'b'
tRp163
(I1
(tg12
I00
S'\xe4\xf72\xe4\xf72\xb0?'
tbag8
(g9
(I0
tS'b'
tRp164
(I1
(tg12
I00
S'U\xa3\x8fT\xa3\x8f\xb0?'
tbaa(lp165
g8
(g9
(I0
tS'b'
tRp166
(I1
(tg12
I00
S'\xf7\xa7\xbb\xf6\xa7\xbb\xaa?'
tbag8
(g9
(I0
tS'b'
tRp167
(I1
(tg12
I00
S'\xfd^\x86\xfc^\x86\xac?'
tbag8
(g9
(I0
tS'b'
tRp168
(I1
(tg12
I00
S'\xbc\xf6\xa7\xbb\xf6\xa7\xab?'
tbag8
(g9
(I0
tS'b'
tRp169
(I1
(tg12
I00
S':&\xeb9&\xeb\xad?'
tbag8
(g9
(I0
tS'b'
tRp170
(I1
(tg12
I00
S'\x82\xd0\xbc\x81\xd0\xbc\xad?'
tbag8
(g9
(I0
tS'b'
tRp171
(I1
(tg12
I00
S'\x1b}\xa4\x1a}\xa4\xae?'
tbag8
(g9
(I0
tS'b'
tRp172
(I1
(tg12
I00
S':&\xeb9&\xeb\xad?'
tbag8
(g9
(I0
tS'b'
tRp173
(I1
(tg12
I00
S'H\xaa\xd1G\xaa\xd1\xaf?'
tbag8
(g9
(I0
tS'b'
tRp174
(I1
(tg12
I00
S'&\xeb9&\xeb9\xb0?'
tbag8
(g9
(I0
tS'b'
tRp175
(I1
(tg12
I00
S'6\x85q6\x85q\xae?'
tbaa(lp176
g8
(g9
(I0
tS'b'
tRp177
(I1
(tg12
I00
S'\xc1\xadr\xc1\xadr\xa9?'
tbag8
(g9
(I0
tS'b'
tRp178
(I1
(tg12
I00
S'\xf3\x06B\xf3\x06B\xab?'
tbag8
(g9
(I0
tS'b'
tRp179
(I1
(tg12
I00
S'|\x19\xf2{\x19\xf2\xab?'
tbag8
(g9
(I0
tS'b'
tRp180
(I1
(tg12
I00
S'\xf82\xe4\xf72\xe4\xab?'
tbag8
(g9
(I0
tS'b'
tRp181
(I1
(tg12
I00
S'\xfb\xd3]\xfb\xd3]\xab?'
tbag8
(g9
(I0
tS'b'
tRp182
(I1
(tg12
I00
S'\x89\x12\xb0\x88\x12\xb0\xac?'
tbag8
(g9
(I0
tS'b'
tRp183
(I1
(tg12
I00
S'\xedOw\xedOw\xad?'
tbag8
(g9
(I0
tS'b'
tRp184
(I1
(tg12
I00
S'Y\xcf1Y\xcf1\xad?'
tbag8
(g9
(I0
tS'b'
tRp185
(I1
(tg12
I00
S'\xd5\xe8#\xd5\xe8#\xad?'
tbag8
(g9
(I0
tS'b'
tRp186
(I1
(tg12
I00
S'\xe2\xe1\xe1\xe1\xe1\xe1\xad?'
tbaa(lp187
g8
(g9
(I0
tS'b'
tRp188
(I1
(tg12
I00
S'\x83[\xe5\x82[\xe5\xaa?'
tbag8
(g9
(I0
tS'b'
tRp189
(I1
(tg12
I00
S'\x0f\x0f\x0f\x0f\x0f\x0f\xab?'
tbag8
(g9
(I0
tS'b'
tRp190
(I1
(tg12
I00
S'R\x8d>R\x8d>\xaa?'
tbag8
(g9
(I0
tS'b'
tRp191
(I1
(tg12
I00
S'\xdb\x9f\xee\xda\x9f\xee\xaa?'
tbag8
(g9
(I0
tS'b'
tRp192
(I1
(tg12
I00
S'\xfft\xd7\xfet\xd7\xaa?'
tbag8
(g9
(I0
tS'b'
tRp193
(I1
(tg12
I00
S']p\xab\\p\xab\xac?'
tbag8
(g9
(I0
tS'b'
tRp194
(I1
(tg12
I00
S'\xa3\x8fT\xa3\x8fT\xab?'
tbag8
(g9
(I0
tS'b'
tRp195
(I1
(tg12
I00
S'\x90T\xa3\x8fT\xa3\xab?'
tbag8
(g9
(I0
tS'b'
tRp196
(I1
(tg12
I00
S'\x14;\xb1\x13;\xb1\xab?'
tbag8
(g9
(I0
tS'b'
tRp197
(I1
(tg12
I00
S'\x81E\x94\x80E\x94\xac?'
tbaa(lp198
g8
(g9
(I0
tS'b'
tRp199
(I1
(tg12
I00
S'S\x18gS\x18g\xa7?'
tbag8
(g9
(I0
tS'b'
tRp200
(I1
(tg12
I00
S'\xe1V\xb9\xe0V\xb9\xa8?'
tbag8
(g9
(I0
tS'b'
tRp201
(I1
(tg12
I00
S'1\xce\xa60\xce\xa6\xa8?'
tbag8
(g9
(I0
tS'b'
tRp202
(I1
(tg12
I00
S'tL\xd6sL\xd6\xa7?'
tbag8
(g9
(I0
tS'b'
tRp203
(I1
(tg12
I00
S'\x86\xfc^\x86\xfc^\xaa?'
tbag8
(g9
(I0
tS'b'
tRp204
(I1
(tg12
I00
S'f\xc8\xefe\xc8\xef\xa9?'
tbag8
(g9
(I0
tS'b'
tRp205
(I1
(tg12
I00
S'\x8b(\x01\x8b(\x01\xab?'
tbag8
(g9
(I0
tS'b'
tRp206
(I1
(tg12
I00
S'd\xb2\x9ec\xb2\x9e\xab?'
tbag8
(g9
(I0
tS'b'
tRp207
(I1
(tg12
I00
S'`\x11%`\x11%\xac?'
tbag8
(g9
(I0
tS'b'
tRp208
(I1
(tg12
I00
S'\xf0e\xc8\xefe\xc8\xab?'
tbaa(lp209
g8
(g9
(I0
tS'b'
tRp210
(I1
(tg12
I00
S'\xd5\xe8#\xd5\xe8#\xa9?'
tbag8
(g9
(I0
tS'b'
tRp211
(I1
(tg12
I00
S'\xe3l\n\xe3l\n\xa7?'
tbag8
(g9
(I0
tS'b'
tRp212
(I1
(tg12
I00
S',\xa2\x04,\xa2\x04\xa8?'
tbag8
(g9
(I0
tS'b'
tRp213
(I1
(tg12
I00
S'\xfb\xd3]\xfb\xd3]\xa7?'
tbag8
(g9
(I0
tS'b'
tRp214
(I1
(tg12
I00
S'F\x94\x80E\x94\x80\xa9?'
tbag8
(g9
(I0
tS'b'
tRp215
(I1
(tg12
I00
S'\x1d\x93\xf5\x1c\x93\xf5\xa8?'
tbag8
(g9
(I0
tS'b'
tRp216
(I1
(tg12
I00
S'\x92j\xf4\x91j\xf4\xa9?'
tbag8
(g9
(I0
tS'b'
tRp217
(I1
(tg12
I00
S'O\xec\xc4N\xec\xc4\xaa?'
tbag8
(g9
(I0
tS'b'
tRp218
(I1
(tg12
I00
S'.\xb8U.\xb8U\xaa?'
tbag8
(g9
(I0
tS'b'
tRp219
(I1
(tg12
I00
S"vb'vb'\xaa?"
tbaa(lp220
g8
(g9
(I0
tS'b'
tRp221
(I1
(tg12
I00
S'\xd6sL\xd6sL\xa6?'
tbag8
(g9
(I0
tS'b'
tRp222
(I1
(tg12
I00
S'\xf7\xa7\xbb\xf6\xa7\xbb\xa6?'
tbag8
(g9
(I0
tS'b'
tRp223
(I1
(tg12
I00
S'p\xab\\p\xab\\\xa8?'
tbag8
(g9
(I0
tS'b'
tRp224
(I1
(tg12
I00
S'\xe1V\xb9\xe0V\xb9\xa8?'
tbag8
(g9
(I0
tS'b'
tRp225
(I1
(tg12
I00
S'4o 4o \xa8?'
tbag8
(g9
(I0
tS'b'
tRp226
(I1
(tg12
I00
S'\xc8\xefe\xc8\xefe\xa8?'
tbag8
(g9
(I0
tS'b'
tRp227
(I1
(tg12
I00
S'XD\tXD\t\xa8?'
tbag8
(g9
(I0
tS'b'
tRp228
(I1
(tg12
I00
S'\xa8\xbb\xf6\xa7\xbb\xf6\xa7?'
tbag8
(g9
(I0
tS'b'
tRp229
(I1
(tg12
I00
S'\x8a\x9d\xd8\x89\x9d\xd8\xa9?'
tbag8
(g9
(I0
tS'b'
tRp230
(I1
(tg12
I00
S'\xb9\xe0V\xb9\xe0V\xa9?'
tbaa(lp231
g8
(g9
(I0
tS'b'
tRp232
(I1
(tg12
I00
S'z\x03\xa1y\x03\xa1\xa5?'
tbag8
(g9
(I0
tS'b'
tRp233
(I1
(tg12
I00
S'\x82\xd0\xbc\x81\xd0\xbc\xa5?'
tbag8
(g9
(I0
tS'b'
tRp234
(I1
(tg12
I00
S'\xb2\x9ec\xb2\x9ec\xa6?'
tbag8
(g9
(I0
tS'b'
tRp235
(I1
(tg12
I00
S'\xc7d=\xc7d=\xa7?'
tbag8
(g9
(I0
tS'b'
tRp236
(I1
(tg12
I00
S'gS\x18gS\x18\xa7?'
tbag8
(g9
(I0
tS'b'
tRp237
(I1
(tg12
I00
S'\x9fc\xb2\x9ec\xb2\xa6?'
tbag8
(g9
(I0
tS'b'
tRp238
(I1
(tg12
I00
S'\xd1\xbc\x81\xd0\xbc\x81\xa8?'
tbag8
(g9
(I0
tS'b'
tRp239
(I1
(tg12
I00
S'\xb4)\x8c\xb3)\x8c\xa7?'
tbag8
(g9
(I0
tS'b'
tRp240
(I1
(tg12
I00
S'\xa9F\x1f\xa9F\x1f\xa9?'
tbag8
(g9
(I0
tS'b'
tRp241
(I1
(tg12
I00
S'\xfd^\x86\xfc^\x86\xa8?'
tbaa(lp242
g8
(g9
(I0
tS'b'
tRp243
(I1
(tg12
I00
S'\x94\x80E\x94\x80E\xa4?'
tbag8
(g9
(I0
tS'b'
tRp244
(I1
(tg12
I00
S'\xb1\x13;\xb1\x13;\xa5?'
tbag8
(g9
(I0
tS'b'
tRp245
(I1
(tg12
I00
S'\x13\xb0\x88\x12\xb0\x88\xa6?'
tbag8
(g9
(I0
tS'b'
tRp246
(I1
(tg12
I00
S'"\xbf\x97!\xbf\x97\xa5?'
tbag8
(g9
(I0
tS'b'
tRp247
(I1
(tg12
I00
S'\x85q6\x85q6\xa5?'
tbag8
(g9
(I0
tS'b'
tRp248
(I1
(tg12
I00
S'\n\xe3l\n\xe3l\xa6?'
tbag8
(g9
(I0
tS'b'
tRp249
(I1
(tg12
I00
S'\\\xe5\x82[\xe5\x82\xa7?'
tbag8
(g9
(I0
tS'b'
tRp250
(I1
(tg12
I00
S'\xc7d=\xc7d=\xa7?'
tbag8
(g9
(I0
tS'b'
tRp251
(I1
(tg12
I00
S'\xc0"J\xc0"J\xa8?'
tbag8
(g9
(I0
tS'b'
tRp252
(I1
(tg12
I00
S'\xc0"J\xc0"J\xa8?'
tbaa(lp253
g8
(g9
(I0
tS'b'
tRp254
(I1
(tg12
I00
S'Pw\xedOw\xed\xa3?'
tbag8
(g9
(I0
tS'b'
tRp255
(I1
(tg12
I00
S'*\x8c\xb3)\x8c\xb3\xa5?'
tbag8
(g9
(I0
tS'b'
tRp256
(I1
(tg12
I00
S'\x81E\x94\x80E\x94\xa4?'
tbag8
(g9
(I0
tS'b'
tRp257
(I1
(tg12
I00
S'\x95\x0bn\x95\x0bn\xa5?'
tbag8
(g9
(I0
tS'b'
tRp258
(I1
(tg12
I00
S'\xc5N\xec\xc4N\xec\xa4?'
tbag8
(g9
(I0
tS'b'
tRp259
(I1
(tg12
I00
S'\xc6\xd9\x14\xc6\xd9\x14\xa6?'
tbag8
(g9
(I0
tS'b'
tRp260
(I1
(tg12
I00
S'\xeb9&\xeb9&\xa7?'
tbag8
(g9
(I0
tS'b'
tRp261
(I1
(tg12
I00
S'\xb7\xca\x05\xb7\xca\x05\xa7?'
tbag8
(g9
(I0
tS'b'
tRp262
(I1
(tg12
I00
S'XD\tXD\t\xa8?'
tbag8
(g9
(I0
tS'b'
tRp263
(I1
(tg12
I00
S'+\x17\xdc*\x17\xdc\xa6?'
tbaa(lp264
g8
(g9
(I0
tS'b'
tRp265
(I1
(tg12
I00
S'\xf1\xf0\xf0\xf0\xf0\xf0\xa4?'
tbag8
(g9
(I0
tS'b'
tRp266
(I1
(tg12
I00
S'\xe4\xf72\xe4\xf72\xa4?'
tbag8
(g9
(I0
tS'b'
tRp267
(I1
(tg12
I00
S'\x19\xf2{\x19\xf2{\xa5?'
tbag8
(g9
(I0
tS'b'
tRp268
(I1
(tg12
I00
S'\xf1\xf0\xf0\xf0\xf0\xf0\xa4?'
tbag8
(g9
(I0
tS'b'
tRp269
(I1
(tg12
I00
S'V.\xb8U.\xb8\xa5?'
tbag8
(g9
(I0
tS'b'
tRp270
(I1
(tg12
I00
S'"\xbf\x97!\xbf\x97\xa5?'
tbag8
(g9
(I0
tS'b'
tRp271
(I1
(tg12
I00
S'\xce\xa60\xce\xa60\xa6?'
tbag8
(g9
(I0
tS'b'
tRp272
(I1
(tg12
I00
S'\xaf\xfd\xe9\xae\xfd\xe9\xa6?'
tbag8
(g9
(I0
tS'b'
tRp273
(I1
(tg12
I00
S'\xbak\x7f\xbak\x7f\xa6?'
tbag8
(g9
(I0
tS'b'
tRp274
(I1
(tg12
I00
S'z\x03\xa1y\x03\xa1\xa5?'
tbaa(lp275
g8
(g9
(I0
tS'b'
tRp276
(I1
(tg12
I00
S'\x14;\xb1\x13;\xb1\xa3?'
tbag8
(g9
(I0
tS'b'
tRp277
(I1
(tg12
I00
S'\x14;\xb1\x13;\xb1\xa3?'
tbag8
(g9
(I0
tS'b'
tRp278
(I1
(tg12
I00
S'9\x9b\xc28\x9b\xc2\xa4?'
tbag8
(g9
(I0
tS'b'
tRp279
(I1
(tg12
I00
S'\x82\xd0\xbc\x81\xd0\xbc\xa5?'
tbag8
(g9
(I0
tS'b'
tRp280
(I1
(tg12
I00
S'|\x19\xf2{\x19\xf2\xa3?'
tbag8
(g9
(I0
tS'b'
tRp281
(I1
(tg12
I00
S'\x00\x00\x00\x00\x00\x00\xa4?'
tbag8
(g9
(I0
tS'b'
tRp282
(I1
(tg12
I00
S'\tXD\tXD\xa5?'
tbag8
(g9
(I0
tS'b'
tRp283
(I1
(tg12
I00
S'Q\x02\x16Q\x02\x16\xa5?'
tbag8
(g9
(I0
tS'b'
tRp284
(I1
(tg12
I00
S'\xd6sL\xd6sL\xa6?'
tbag8
(g9
(I0
tS'b'
tRp285
(I1
(tg12
I00
S'\x86\xfc^\x86\xfc^\xa6?'
tbaa(lp286
g8
(g9
(I0
tS'b'
tRp287
(I1
(tg12
I00
S'\xc38\x9b\xc28\x9b\xa2?'
tbag8
(g9
(I0
tS'b'
tRp288
(I1
(tg12
I00
S'\xcf1Y\xcf1Y\xa3?'
tbag8
(g9
(I0
tS'b'
tRp289
(I1
(tg12
I00
S's\xc1\xadr\xc1\xad\xa2?'
tbag8
(g9
(I0
tS'b'
tRp290
(I1
(tg12
I00
S'\xe1V\xb9\xe0V\xb9\xa4?'
tbag8
(g9
(I0
tS'b'
tRp291
(I1
(tg12
I00
S'\xfd^\x86\xfc^\x86\xa4?'
tbag8
(g9
(I0
tS'b'
tRp292
(I1
(tg12
I00
S'\xa8\xbb\xf6\xa7\xbb\xf6\xa3?'
tbag8
(g9
(I0
tS'b'
tRp293
(I1
(tg12
I00
S'\xc1\xadr\xc1\xadr\xa5?'
tbag8
(g9
(I0
tS'b'
tRp294
(I1
(tg12
I00
S'e=\xc7d=\xc7\xa4?'
tbag8
(g9
(I0
tS'b'
tRp295
(I1
(tg12
I00
S'\xc6\xd9\x14\xc6\xd9\x14\xa6?'
tbag8
(g9
(I0
tS'b'
tRp296
(I1
(tg12
I00
S'\xce\xa60\xce\xa60\xa6?'
tbaa(lp297
g8
(g9
(I0
tS'b'
tRp298
(I1
(tg12
I00
S'\xe5\x82[\xe5\x82[\xa1?'
tbag8
(g9
(I0
tS'b'
tRp299
(I1
(tg12
I00
S'\xa0\xee\xda\x9f\xee\xda\xa3?'
tbag8
(g9
(I0
tS'b'
tRp300
(I1
(tg12
I00
S'\x17\xdc*\x17\xdc*\xa3?'
tbag8
(g9
(I0
tS'b'
tRp301
(I1
(tg12
I00
S'\x17\xdc*\x17\xdc*\xa3?'
tbag8
(g9
(I0
tS'b'
tRp302
(I1
(tg12
I00
S'4o 4o \xa4?'
tbag8
(g9
(I0
tS'b'
tRp303
(I1
(tg12
I00
S'KKKKKK\xa3?'
tbag8
(g9
(I0
tS'b'
tRp304
(I1
(tg12
I00
S'\xfe\xe9\xae\xfd\xe9\xae\xa5?'
tbag8
(g9
(I0
tS'b'
tRp305
(I1
(tg12
I00
S'\x10\x9a7\x10\x9a7\xa4?'
tbag8
(g9
(I0
tS'b'
tRp306
(I1
(tg12
I00
S'\x91\xdf\xcb\x90\xdf\xcb\xa4?'
tbag8
(g9
(I0
tS'b'
tRp307
(I1
(tg12
I00
S'XD\tXD\t\xa4?'
tbaa(lp308
g8
(g9
(I0
tS'b'
tRp309
(I1
(tg12
I00
S'V.\xb8U.\xb8\xa1?'
tbag8
(g9
(I0
tS'b'
tRp310
(I1
(tg12
I00
S'ZZZZZZ\xa2?'
tbag8
(g9
(I0
tS'b'
tRp311
(I1
(tg12
I00
S'\tXD\tXD\xa1?'
tbag8
(g9
(I0
tS'b'
tRp312
(I1
(tg12
I00
S'?R\x8d>R\x8d\xa2?'
tbag8
(g9
(I0
tS'b'
tRp313
(I1
(tg12
I00
S'\xd4]\xfb\xd3]\xfb\xa3?'
tbag8
(g9
(I0
tS'b'
tRp314
(I1
(tg12
I00
S';\xb1\x13;\xb1\x13\xa3?'
tbag8
(g9
(I0
tS'b'
tRp315
(I1
(tg12
I00
S'\x84\xe6\r\x84\xe6\r\xa4?'
tbag8
(g9
(I0
tS'b'
tRp316
(I1
(tg12
I00
S'\x98!\xbf\x97!\xbf\xa3?'
tbag8
(g9
(I0
tS'b'
tRp317
(I1
(tg12
I00
S'4o 4o \xa4?'
tbag8
(g9
(I0
tS'b'
tRp318
(I1
(tg12
I00
S')\x01\x8b(\x01\x8b\xa4?'
tbaa(lp319
g8
(g9
(I0
tS'b'
tRp320
(I1
(tg12
I00
S'z\x03\xa1y\x03\xa1\xa1?'
tbag8
(g9
(I0
tS'b'
tRp321
(I1
(tg12
I00
S'\xda\x14\xc6\xd9\x14\xc6\xa1?'
tbag8
(g9
(I0
tS'b'
tRp322
(I1
(tg12
I00
S'\x0e\x84\xe6\r\x84\xe6\xa1?'
tbag8
(g9
(I0
tS'b'
tRp323
(I1
(tg12
I00
S'\xc1\xadr\xc1\xadr\xa1?'
tbag8
(g9
(I0
tS'b'
tRp324
(I1
(tg12
I00
S'\xaf\xfd\xe9\xae\xfd\xe9\xa2?'
tbag8
(g9
(I0
tS'b'
tRp325
(I1
(tg12
I00
S'3\xe4\xf72\xe4\xf7\xa2?'
tbag8
(g9
(I0
tS'b'
tRp326
(I1
(tg12
I00
S'\x18gS\x18gS\xa4?'
tbag8
(g9
(I0
tS'b'
tRp327
(I1
(tg12
I00
S'\xbc\xf6\xa7\xbb\xf6\xa7\xa3?'
tbag8
(g9
(I0
tS'b'
tRp328
(I1
(tg12
I00
S'h\xde@h\xde@\xa4?'
tbag8
(g9
(I0
tS'b'
tRp329
(I1
(tg12
I00
S']p\xab\\p\xab\xa4?'
tbaa(lp330
g8
(g9
(I0
tS'b'
tRp331
(I1
(tg12
I00
S'\x92j\xf4\x91j\xf4\xa1?'
tbag8
(g9
(I0
tS'b'
tRp332
(I1
(tg12
I00
S'J\xc0"J\xc0"\xa2?'
tbag8
(g9
(I0
tS'b'
tRp333
(I1
(tg12
I00
S'\x13\xb0\x88\x12\xb0\x88\xa2?'
tbag8
(g9
(I0
tS'b'
tRp334
(I1
(tg12
I00
S'\xb7\xca\x05\xb7\xca\x05\xa3?'
tbag8
(g9
(I0
tS'b'
tRp335
(I1
(tg12
I00
S'6\x85q6\x85q\xa2?'
tbag8
(g9
(I0
tS'b'
tRp336
(I1
(tg12
I00
S'\x1b}\xa4\x1a}\xa4\xa2?'
tbag8
(g9
(I0
tS'b'
tRp337
(I1
(tg12
I00
S'\xe0\xcb\x90\xdf\xcb\x90\xa3?'
tbag8
(g9
(I0
tS'b'
tRp338
(I1
(tg12
I00
S'U\xa3\x8fT\xa3\x8f\xa4?'
tbag8
(g9
(I0
tS'b'
tRp339
(I1
(tg12
I00
S'\xcd\x1b\x08\xcd\x1b\x08\xa5?'
tbag8
(g9
(I0
tS'b'
tRp340
(I1
(tg12
I00
S'\x98!\xbf\x97!\xbf\xa3?'
tbaa(lp341
g8
(g9
(I0
tS'b'
tRp342
(I1
(tg12
I00
S'\xad\xe7\x98\xac\xe7\x98\xa0?'
tbag8
(g9
(I0
tS'b'
tRp343
(I1
(tg12
I00
S'\xf9\xbd\x0c\xf9\xbd\x0c\xa1?'
tbag8
(g9
(I0
tS'b'
tRp344
(I1
(tg12
I00
S'.\xb8U.\xb8U\xa2?'
tbag8
(g9
(I0
tS'b'
tRp345
(I1
(tg12
I00
S'^\xfb\xd3]\xfb\xd3\xa1?'
tbag8
(g9
(I0
tS'b'
tRp346
(I1
(tg12
I00
S"b'vb'v\xa2?"
tbag8
(g9
(I0
tS'b'
tRp347
(I1
(tg12
I00
S'~/C~/C\xa2?'
tbag8
(g9
(I0
tS'b'
tRp348
(I1
(tg12
I00
S'+\x17\xdc*\x17\xdc\xa2?'
tbag8
(g9
(I0
tS'b'
tRp349
(I1
(tg12
I00
S'\x02\x16Q\x02\x16Q\xa2?'
tbag8
(g9
(I0
tS'b'
tRp350
(I1
(tg12
I00
S"b'vb'v\xa2?"
tbag8
(g9
(I0
tS'b'
tRp351
(I1
(tg12
I00
S'\x94\x80E\x94\x80E\xa4?'
tbaa(lp352
g8
(g9
(I0
tS'b'
tRp353
(I1
(tg12
I00
S"'vb'vb\x9f?"
tbag8
(g9
(I0
tS'b'
tRp354
(I1
(tg12
I00
S'xxxxxx\xa0?'
tbag8
(g9
(I0
tS'b'
tRp355
(I1
(tg12
I00
S'Y\xcf1Y\xcf1\xa1?'
tbag8
(g9
(I0
tS'b'
tRp356
(I1
(tg12
I00
S'\xedOw\xedOw\xa1?'
tbag8
(g9
(I0
tS'b'
tRp357
(I1
(tg12
I00
S'r6\x85q6\x85\xa1?'
tbag8
(g9
(I0
tS'b'
tRp358
(I1
(tg12
I00
S'\xd6sL\xd6sL\xa2?'
tbag8
(g9
(I0
tS'b'
tRp359
(I1
(tg12
I00
S'#J\xc0"J\xc0\xa2?'
tbag8
(g9
(I0
tS'b'
tRp360
(I1
(tg12
I00
S'\x82\xd0\xbc\x81\xd0\xbc\xa1?'
tbag8
(g9
(I0
tS'b'
tRp361
(I1
(tg12
I00
S'.\xb8U.\xb8U\xa2?'
tbag8
(g9
(I0
tS'b'
tRp362
(I1
(tg12
I00
S'\xfaH5\xfaH5\xa2?'
tbaa(lp363
g8
(g9
(I0
tS'b'
tRp364
(I1
(tg12
I00
S'\xfd^\x86\xfc^\x86\xa0?'
tbag8
(g9
(I0
tS'b'
tRp365
(I1
(tg12
I00
S'\xb9\xe0V\xb9\xe0V\xa1?'
tbag8
(g9
(I0
tS'b'
tRp366
(I1
(tg12
I00
S'\x01\x8b(\x01\x8b(\xa1?'
tbag8
(g9
(I0
tS'b'
tRp367
(I1
(tg12
I00
S'2Y\xcf1Y\xcf\xa1?'
tbag8
(g9
(I0
tS'b'
tRp368
(I1
(tg12
I00
S'------\xa1?'
tbag8
(g9
(I0
tS'b'
tRp369
(I1
(tg12
I00
S'\xa2\x04,\xa2\x04,\xa2?'
tbag8
(g9
(I0
tS'b'
tRp370
(I1
(tg12
I00
S'------\xa1?'
tbag8
(g9
(I0
tS'b'
tRp371
(I1
(tg12
I00
S'+\x17\xdc*\x17\xdc\xa2?'
tbag8
(g9
(I0
tS'b'
tRp372
(I1
(tg12
I00
S'\xfaH5\xfaH5\xa2?'
tbag8
(g9
(I0
tS'b'
tRp373
(I1
(tg12
I00
S'\xd6sL\xd6sL\xa2?'
tbaa(lp374
g8
(g9
(I0
tS'b'
tRp375
(I1
(tg12
I00
S'\x8e\xc9z\x8e\xc9z\x9e?'
tbag8
(g9
(I0
tS'b'
tRp376
(I1
(tg12
I00
S'\xb8U.\xb8U.\xa0?'
tbag8
(g9
(I0
tS'b'
tRp377
(I1
(tg12
I00
S')\x01\x8b(\x01\x8b\xa0?'
tbag8
(g9
(I0
tS'b'
tRp378
(I1
(tg12
I00
S'u\xd7\xfet\xd7\xfe\xa0?'
tbag8
(g9
(I0
tS'b'
tRp379
(I1
(tg12
I00
S'\xc5N\xec\xc4N\xec\xa0?'
tbag8
(g9
(I0
tS'b'
tRp380
(I1
(tg12
I00
S'm\n\xe3l\n\xe3\xa0?'
tbag8
(g9
(I0
tS'b'
tRp381
(I1
(tg12
I00
S'\x95\x0bn\x95\x0bn\xa1?'
tbag8
(g9
(I0
tS'b'
tRp382
(I1
(tg12
I00
S'\xc7d=\xc7d=\xa3?'
tbag8
(g9
(I0
tS'b'
tRp383
(I1
(tg12
I00
S'\xda\x14\xc6\xd9\x14\xc6\xa1?'
tbag8
(g9
(I0
tS'b'
tRp384
(I1
(tg12
I00
S'\xfe\xe9\xae\xfd\xe9\xae\xa1?'
tbaa(lp385
g8
(g9
(I0
tS'b'
tRp386
(I1
(tg12
I00
S'\xb7\xca\x05\xb7\xca\x05\x9f?'
tbag8
(g9
(I0
tS'b'
tRp387
(I1
(tg12
I00
S'\x90T\xa3\x8fT\xa3\x9f?'
tbag8
(g9
(I0
tS'b'
tRp388
(I1
(tg12
I00
S'\x90T\xa3\x8fT\xa3\x9f?'
tbag8
(g9
(I0
tS'b'
tRp389
(I1
(tg12
I00
S'\x99\xac\xe7\x98\xac\xe7\xa0?'
tbag8
(g9
(I0
tS'b'
tRp390
(I1
(tg12
I00
S'\x15\xc6\xd9\x14\xc6\xd9\xa0?'
tbag8
(g9
(I0
tS'b'
tRp391
(I1
(tg12
I00
S'\xad\xe7\x98\xac\xe7\x98\xa0?'
tbag8
(g9
(I0
tS'b'
tRp392
(I1
(tg12
I00
S'\x8a\x9d\xd8\x89\x9d\xd8\xa1?'
tbag8
(g9
(I0
tS'b'
tRp393
(I1
(tg12
I00
S'\r\xf9\xbd\x0c\xf9\xbd\xa0?'
tbag8
(g9
(I0
tS'b'
tRp394
(I1
(tg12
I00
S'R\x8d>R\x8d>\xa2?'
tbag8
(g9
(I0
tS'b'
tRp395
(I1
(tg12
I00
S'\xdd\xb5?\xdd\xb5?\xa1?'
tbaa(lp396
g8
(g9
(I0
tS'b'
tRp397
(I1
(tg12
I00
S'w\xedOw\xedO\x9f?'
tbag8
(g9
(I0
tS'b'
tRp398
(I1
(tg12
I00
S'^\xfb\xd3]\xfb\xd3\x9d?'
tbag8
(g9
(I0
tS'b'
tRp399
(I1
(tg12
I00
S'\r\xf9\xbd\x0c\xf9\xbd\xa0?'
tbag8
(g9
(I0
tS'b'
tRp400
(I1
(tg12
I00
S'\xc0"J\xc0"J\xa0?'
tbag8
(g9
(I0
tS'b'
tRp401
(I1
(tg12
I00
S'------\xa1?'
tbag8
(g9
(I0
tS'b'
tRp402
(I1
(tg12
I00
S'4o 4o \xa0?'
tbag8
(g9
(I0
tS'b'
tRp403
(I1
(tg12
I00
S'\x81E\x94\x80E\x94\xa0?'
tbag8
(g9
(I0
tS'b'
tRp404
(I1
(tg12
I00
S'\x1b}\xa4\x1a}\xa4\xa2?'
tbag8
(g9
(I0
tS'b'
tRp405
(I1
(tg12
I00
S'\xdd\xb5?\xdd\xb5?\xa1?'
tbag8
(g9
(I0
tS'b'
tRp406
(I1
(tg12
I00
S'\xe2\xe1\xe1\xe1\xe1\xe1\xa1?'
tbaa(lp407
g8
(g9
(I0
tS'b'
tRp408
(I1
(tg12
I00
S'4o 4o \xa0?'
tbag8
(g9
(I0
tS'b'
tRp409
(I1
(tg12
I00
S'XD\tXD\t\xa0?'
tbag8
(g9
(I0
tS'b'
tRp410
(I1
(tg12
I00
S' 4o 4o\xa0?'
tbag8
(g9
(I0
tS'b'
tRp411
(I1
(tg12
I00
S'\xe4\xf72\xe4\xf72\xa0?'
tbag8
(g9
(I0
tS'b'
tRp412
(I1
(tg12
I00
S'\x19\xf2{\x19\xf2{\xa1?'
tbag8
(g9
(I0
tS'b'
tRp413
(I1
(tg12
I00
S'\xd9\x89\x9d\xd8\x89\x9d\xa0?'
tbag8
(g9
(I0
tS'b'
tRp414
(I1
(tg12
I00
S' 4o 4o\xa0?'
tbag8
(g9
(I0
tS'b'
tRp415
(I1
(tg12
I00
S'\xfaH5\xfaH5\xa2?'
tbag8
(g9
(I0
tS'b'
tRp416
(I1
(tg12
I00
S'\xea\xae\xfd\xe9\xae\xfd\xa1?'
tbag8
(g9
(I0
tS'b'
tRp417
(I1
(tg12
I00
S'ZZZZZZ\xa2?'
tbaa(lp418
g8
(g9
(I0
tS'b'
tRp419
(I1
(tg12
I00
S'&\xeb9&\xeb9\x9e?'
tbag8
(g9
(I0
tS'b'
tRp420
(I1
(tg12
I00
S'\xe0\xcb\x90\xdf\xcb\x90\x9f?'
tbag8
(g9
(I0
tS'b'
tRp421
(I1
(tg12
I00
S'.\xb8U.\xb8U\x9e?'
tbag8
(g9
(I0
tS'b'
tRp422
(I1
(tg12
I00
S'\xe0\xcb\x90\xdf\xcb\x90\x9f?'
tbag8
(g9
(I0
tS'b'
tRp423
(I1
(tg12
I00
S'\x81E\x94\x80E\x94\xa0?'
tbag8
(g9
(I0
tS'b'
tRp424
(I1
(tg12
I00
S'\xcd\x1b\x08\xcd\x1b\x08\xa1?'
tbag8
(g9
(I0
tS'b'
tRp425
(I1
(tg12
I00
S')\x01\x8b(\x01\x8b\xa0?'
tbag8
(g9
(I0
tS'b'
tRp426
(I1
(tg12
I00
S'\x89\x12\xb0\x88\x12\xb0\xa0?'
tbag8
(g9
(I0
tS'b'
tRp427
(I1
(tg12
I00
S'\xc5N\xec\xc4N\xec\xa0?'
tbag8
(g9
(I0
tS'b'
tRp428
(I1
(tg12
I00
S'e=\xc7d=\xc7\xa0?'
tbaa(lp429
g8
(g9
(I0
tS'b'
tRp430
(I1
(tg12
I00
S'O\xec\xc4N\xec\xc4\x9e?'
tbag8
(g9
(I0
tS'b'
tRp431
(I1
(tg12
I00
S'5\xfaH5\xfaH\x9d?'
tbag8
(g9
(I0
tS'b'
tRp432
(I1
(tg12
I00
S'\xa70\xce\xa60\xce\x9e?'
tbag8
(g9
(I0
tS'b'
tRp433
(I1
(tg12
I00
S'o 4o 4\x9f?'
tbag8
(g9
(I0
tS'b'
tRp434
(I1
(tg12
I00
S'\xdc*\x17\xdc*\x17\xa0?'
tbag8
(g9
(I0
tS'b'
tRp435
(I1
(tg12
I00
S'\x00\x00\x00\x00\x00\x00\xa0?'
tbag8
(g9
(I0
tS'b'
tRp436
(I1
(tg12
I00
S'F\x94\x80E\x94\x80\xa1?'
tbag8
(g9
(I0
tS'b'
tRp437
(I1
(tg12
I00
S'\r\xf9\xbd\x0c\xf9\xbd\xa0?'
tbag8
(g9
(I0
tS'b'
tRp438
(I1
(tg12
I00
S'%`\x11%`\x11\xa1?'
tbag8
(g9
(I0
tS'b'
tRp439
(I1
(tg12
I00
S'\xdc*\x17\xdc*\x17\xa0?'
tbaa(lp440
g8
(g9
(I0
tS'b'
tRp441
(I1
(tg12
I00
S'\x1e\x1e\x1e\x1e\x1e\x1e\x9e?'
tbag8
(g9
(I0
tS'b'
tRp442
(I1
(tg12
I00
S'XD\tXD\t\xa0?'
tbag8
(g9
(I0
tS'b'
tRp443
(I1
(tg12
I00
S'\x0f\x0f\x0f\x0f\x0f\x0f\x9f?'
tbag8
(g9
(I0
tS'b'
tRp444
(I1
(tg12
I00
S'\x9fc\xb2\x9ec\xb2\x9e?'
tbag8
(g9
(I0
tS'b'
tRp445
(I1
(tg12
I00
S'U\xa3\x8fT\xa3\x8f\xa0?'
tbag8
(g9
(I0
tS'b'
tRp446
(I1
(tg12
I00
S'_\x86\xfc^\x86\xfc\x9e?'
tbag8
(g9
(I0
tS'b'
tRp447
(I1
(tg12
I00
S'\xe4\xf72\xe4\xf72\xa0?'
tbag8
(g9
(I0
tS'b'
tRp448
(I1
(tg12
I00
S'\x00\x00\x00\x00\x00\x00\xa0?'
tbag8
(g9
(I0
tS'b'
tRp449
(I1
(tg12
I00
S'\xb0\x88\x12\xb0\x88\x12\xa0?'
tbag8
(g9
(I0
tS'b'
tRp450
(I1
(tg12
I00
S'z\x03\xa1y\x03\xa1\xa1?'
tbaa(lp451
g8
(g9
(I0
tS'b'
tRp452
(I1
(tg12
I00
S'=\xc7d=\xc7d\x9d?'
tbag8
(g9
(I0
tS'b'
tRp453
(I1
(tg12
I00
S"vb'vb'\x9e?"
tbag8
(g9
(I0
tS'b'
tRp454
(I1
(tg12
I00
S'\xd4]\xfb\xd3]\xfb\x9b?'
tbag8
(g9
(I0
tS'b'
tRp455
(I1
(tg12
I00
S'\x97\x96\x96\x96\x96\x96\x9e?'
tbag8
(g9
(I0
tS'b'
tRp456
(I1
(tg12
I00
S'\xef\xda\x9f\xee\xda\x9f\x9e?'
tbag8
(g9
(I0
tS'b'
tRp457
(I1
(tg12
I00
S'\x1f\xa9F\x1f\xa9F\x9f?'
tbag8
(g9
(I0
tS'b'
tRp458
(I1
(tg12
I00
S'1\xce\xa60\xce\xa6\xa0?'
tbag8
(g9
(I0
tS'b'
tRp459
(I1
(tg12
I00
S'_\x86\xfc^\x86\xfc\x9e?'
tbag8
(g9
(I0
tS'b'
tRp460
(I1
(tg12
I00
S'\xa70\xce\xa60\xce\x9e?'
tbag8
(g9
(I0
tS'b'
tRp461
(I1
(tg12
I00
S'\x91\xdf\xcb\x90\xdf\xcb\xa0?'
tbaa(lp462
g8
(g9
(I0
tS'b'
tRp463
(I1
(tg12
I00
S'\xd6sL\xd6sL\x9e?'
tbag8
(g9
(I0
tS'b'
tRp464
(I1
(tg12
I00
S'\x84\xe6\r\x84\xe6\r\x9c?'
tbag8
(g9
(I0
tS'b'
tRp465
(I1
(tg12
I00
S',\xa2\x04,\xa2\x04\xa0?'
tbag8
(g9
(I0
tS'b'
tRp466
(I1
(tg12
I00
S'\xf6\x1c\x93\xf5\x1c\x93\x9d?'
tbag8
(g9
(I0
tS'b'
tRp467
(I1
(tg12
I00
S'G\x1f\xa9F\x1f\xa9\x9e?'
tbag8
(g9
(I0
tS'b'
tRp468
(I1
(tg12
I00
S'\x90T\xa3\x8fT\xa3\x9f?'
tbag8
(g9
(I0
tS'b'
tRp469
(I1
(tg12
I00
S'&\xeb9&\xeb9\x9e?'
tbag8
(g9
(I0
tS'b'
tRp470
(I1
(tg12
I00
S'\x16Q\x02\x16Q\x02\x9e?'
tbag8
(g9
(I0
tS'b'
tRp471
(I1
(tg12
I00
S'\xb0\x88\x12\xb0\x88\x12\xa0?'
tbag8
(g9
(I0
tS'b'
tRp472
(I1
(tg12
I00
S'\xcf1Y\xcf1Y\x9f?'
tbaa(lp473
g8
(g9
(I0
tS'b'
tRp474
(I1
(tg12
I00
S'<<<<<<\x9c?'
tbag8
(g9
(I0
tS'b'
tRp475
(I1
(tg12
I00
S'Na\x9cMa\x9c\x9d?'
tbag8
(g9
(I0
tS'b'
tRp476
(I1
(tg12
I00
S'\x1f\xa9F\x1f\xa9F\x9f?'
tbag8
(g9
(I0
tS'b'
tRp477
(I1
(tg12
I00
S'\xf7\xa7\xbb\xf6\xa7\xbb\x9e?'
tbag8
(g9
(I0
tS'b'
tRp478
(I1
(tg12
I00
S'H\xaa\xd1G\xaa\xd1\x9f?'
tbag8
(g9
(I0
tS'b'
tRp479
(I1
(tg12
I00
S'\xf7\xa7\xbb\xf6\xa7\xbb\x9e?'
tbag8
(g9
(I0
tS'b'
tRp480
(I1
(tg12
I00
S'\x88\x87\x87\x87\x87\x87\x9f?'
tbag8
(g9
(I0
tS'b'
tRp481
(I1
(tg12
I00
S'\xa70\xce\xa60\xce\x9e?'
tbag8
(g9
(I0
tS'b'
tRp482
(I1
(tg12
I00
S'\x18gS\x18gS\xa0?'
tbag8
(g9
(I0
tS'b'
tRp483
(I1
(tg12
I00
S'_\x86\xfc^\x86\xfc\x9e?'
tbaa(lp484
g8
(g9
(I0
tS'b'
tRp485
(I1
(tg12
I00
S'\xd5\xe8#\xd5\xe8#\x9d?'
tbag8
(g9
(I0
tS'b'
tRp486
(I1
(tg12
I00
S'\r\xf9\xbd\x0c\xf9\xbd\x9c?'
tbag8
(g9
(I0
tS'b'
tRp487
(I1
(tg12
I00
S'\x86\xfc^\x86\xfc^\x9e?'
tbag8
(g9
(I0
tS'b'
tRp488
(I1
(tg12
I00
S'<<<<<<\x9c?'
tbag8
(g9
(I0
tS'b'
tRp489
(I1
(tg12
I00
S'\x07B\xf3\x06B\xf3\x9e?'
tbag8
(g9
(I0
tS'b'
tRp490
(I1
(tg12
I00
S'\xcf1Y\xcf1Y\x9f?'
tbag8
(g9
(I0
tS'b'
tRp491
(I1
(tg12
I00
S'/C~/C~\x9f?'
tbag8
(g9
(I0
tS'b'
tRp492
(I1
(tg12
I00
S'\x98!\xbf\x97!\xbf\x9f?'
tbag8
(g9
(I0
tS'b'
tRp493
(I1
(tg12
I00
S'\xb7\xca\x05\xb7\xca\x05\x9f?'
tbag8
(g9
(I0
tS'b'
tRp494
(I1
(tg12
I00
S'\x7f\xbak\x7f\xbak\x9f?'
tbaa(lp495
g8
(g9
(I0
tS'b'
tRp496
(I1
(tg12
I00
S'l\x7f\xbak\x7f\xba\x9b?'
tbag8
(g9
(I0
tS'b'
tRp497
(I1
(tg12
I00
S'\xa3\x8fT\xa3\x8fT\x9b?'
tbag8
(g9
(I0
tS'b'
tRp498
(I1
(tg12
I00
S'\x8d>R\x8d>R\x9d?'
tbag8
(g9
(I0
tS'b'
tRp499
(I1
(tg12
I00
S',\xa2\x04,\xa2\x04\x9c?'
tbag8
(g9
(I0
tS'b'
tRp500
(I1
(tg12
I00
S'\xbc\xf6\xa7\xbb\xf6\xa7\x9b?'
tbag8
(g9
(I0
tS'b'
tRp501
(I1
(tg12
I00
S'\xb5\xb4\xb4\xb4\xb4\xb4\x9c?'
tbag8
(g9
(I0
tS'b'
tRp502
(I1
(tg12
I00
S'\xfe\xe9\xae\xfd\xe9\xae\x9d?'
tbag8
(g9
(I0
tS'b'
tRp503
(I1
(tg12
I00
S'\xb8U.\xb8U.\xa0?'
tbag8
(g9
(I0
tS'b'
tRp504
(I1
(tg12
I00
S'\x1f\xa9F\x1f\xa9F\x9f?'
tbag8
(g9
(I0
tS'b'
tRp505
(I1
(tg12
I00
S'w\xedOw\xedO\x9f?'
tbaa(lp506
g8
(g9
(I0
tS'b'
tRp507
(I1
(tg12
I00
S'\xad\xe7\x98\xac\xe7\x98\x9c?'
tbag8
(g9
(I0
tS'b'
tRp508
(I1
(tg12
I00
S'\xbd\x81\xd0\xbc\x81\xd0\x9c?'
tbag8
(g9
(I0
tS'b'
tRp509
(I1
(tg12
I00
S'D\tXD\tX\x9c?'
tbag8
(g9
(I0
tS'b'
tRp510
(I1
(tg12
I00
S'%`\x11%`\x11\x9d?'
tbag8
(g9
(I0
tS'b'
tRp511
(I1
(tg12
I00
S'\xf6\x1c\x93\xf5\x1c\x93\x9d?'
tbag8
(g9
(I0
tS'b'
tRp512
(I1
(tg12
I00
S'\xf6\x1c\x93\xf5\x1c\x93\x9d?'
tbag8
(g9
(I0
tS'b'
tRp513
(I1
(tg12
I00
S'\x16Q\x02\x16Q\x02\x9e?'
tbag8
(g9
(I0
tS'b'
tRp514
(I1
(tg12
I00
S'Na\x9cMa\x9c\x9d?'
tbag8
(g9
(I0
tS'b'
tRp515
(I1
(tg12
I00
S'\x95\x0bn\x95\x0bn\x9d?'
tbag8
(g9
(I0
tS'b'
tRp516
(I1
(tg12
I00
S'\x0f\x0f\x0f\x0f\x0f\x0f\x9f?'
tbaa(lp517
g8
(g9
(I0
tS'b'
tRp518
(I1
(tg12
I00
S'"\xbf\x97!\xbf\x97\x99?'
tbag8
(g9
(I0
tS'b'
tRp519
(I1
(tg12
I00
S'\xf3\x06B\xf3\x06B\x9b?'
tbag8
(g9
(I0
tS'b'
tRp520
(I1
(tg12
I00
S'\xf6\x1c\x93\xf5\x1c\x93\x9d?'
tbag8
(g9
(I0
tS'b'
tRp521
(I1
(tg12
I00
S'\xc5N\xec\xc4N\xec\x9c?'
tbag8
(g9
(I0
tS'b'
tRp522
(I1
(tg12
I00
S'G\x1f\xa9F\x1f\xa9\x9e?'
tbag8
(g9
(I0
tS'b'
tRp523
(I1
(tg12
I00
S'\xa3\x8fT\xa3\x8fT\x9b?'
tbag8
(g9
(I0
tS'b'
tRp524
(I1
(tg12
I00
S'\xbf\x97!\xbf\x97!\x9f?'
tbag8
(g9
(I0
tS'b'
tRp525
(I1
(tg12
I00
S'm\n\xe3l\n\xe3\x9c?'
tbag8
(g9
(I0
tS'b'
tRp526
(I1
(tg12
I00
S'/C~/C~\x9f?'
tbag8
(g9
(I0
tS'b'
tRp527
(I1
(tg12
I00
S'\xe8\x98\xac\xe7\x98\xac\x9f?'
tbaa(lp528
g8
(g9
(I0
tS'b'
tRp529
(I1
(tg12
I00
S'\x1b}\xa4\x1a}\xa4\x9a?'
tbag8
(g9
(I0
tS'b'
tRp530
(I1
(tg12
I00
S'$\xd5\xe8#\xd5\xe8\x9b?'
tbag8
(g9
(I0
tS'b'
tRp531
(I1
(tg12
I00
S'\x8b(\x01\x8b(\x01\x9b?'
tbag8
(g9
(I0
tS'b'
tRp532
(I1
(tg12
I00
S'U\xa3\x8fT\xa3\x8f\x9c?'
tbag8
(g9
(I0
tS'b'
tRp533
(I1
(tg12
I00
S'\xc5N\xec\xc4N\xec\x9c?'
tbag8
(g9
(I0
tS'b'
tRp534
(I1
(tg12
I00
S'H\xaa\xd1G\xaa\xd1\x9f?'
tbag8
(g9
(I0
tS'b'
tRp535
(I1
(tg12
I00
S'\xbe\x0c\xf9\xbd\x0c\xf9\x9d?'
tbag8
(g9
(I0
tS'b'
tRp536
(I1
(tg12
I00
S'f\xc8\xefe\xc8\xef\x9d?'
tbag8
(g9
(I0
tS'b'
tRp537
(I1
(tg12
I00
S'\x8c\xb3)\x8c\xb3)\x9c?'
tbag8
(g9
(I0
tS'b'
tRp538
(I1
(tg12
I00
S'\x07B\xf3\x06B\xf3\x9e?'
tbaa(lp539
g8
(g9
(I0
tS'b'
tRp540
(I1
(tg12
I00
S'KKKKKK\x9b?'
tbag8
(g9
(I0
tS'b'
tRp541
(I1
(tg12
I00
S'\x8b(\x01\x8b(\x01\x9b?'
tbag8
(g9
(I0
tS'b'
tRp542
(I1
(tg12
I00
S'\xb4)\x8c\xb3)\x8c\x9b?'
tbag8
(g9
(I0
tS'b'
tRp543
(I1
(tg12
I00
S'%`\x11%`\x11\x9d?'
tbag8
(g9
(I0
tS'b'
tRp544
(I1
(tg12
I00
S'\xf6\x1c\x93\xf5\x1c\x93\x9d?'
tbag8
(g9
(I0
tS'b'
tRp545
(I1
(tg12
I00
S'~/C~/C\x9e?'
tbag8
(g9
(I0
tS'b'
tRp546
(I1
(tg12
I00
S'\xf6\x1c\x93\xf5\x1c\x93\x9d?'
tbag8
(g9
(I0
tS'b'
tRp547
(I1
(tg12
I00
S'\x85q6\x85q6\x9d?'
tbag8
(g9
(I0
tS'b'
tRp548
(I1
(tg12
I00
S'\xd6sL\xd6sL\x9e?'
tbag8
(g9
(I0
tS'b'
tRp549
(I1
(tg12
I00
S']p\xab\\p\xab\x9c?'
tbaa(lp550
g8
(g9
(I0
tS'b'
tRp551
(I1
(tg12
I00
S'\x0cn\x95\x0bn\x95\x9b?'
tbag8
(g9
(I0
tS'b'
tRp552
(I1
(tg12
I00
S'\xcc\x90\xdf\xcb\x90\xdf\x9b?'
tbag8
(g9
(I0
tS'b'
tRp553
(I1
(tg12
I00
S'\xa4\x1a}\xa4\x1a}\x9c?'
tbag8
(g9
(I0
tS'b'
tRp554
(I1
(tg12
I00
S'V.\xb8U.\xb8\x9d?'
tbag8
(g9
(I0
tS'b'
tRp555
(I1
(tg12
I00
S'\x05,\xa2\x04,\xa2\x9c?'
tbag8
(g9
(I0
tS'b'
tRp556
(I1
(tg12
I00
S'+\x17\xdc*\x17\xdc\x9a?'
tbag8
(g9
(I0
tS'b'
tRp557
(I1
(tg12
I00
S'\x1e\x1e\x1e\x1e\x1e\x1e\x9e?'
tbag8
(g9
(I0
tS'b'
tRp558
(I1
(tg12
I00
S'\x14;\xb1\x13;\xb1\x9b?'
tbag8
(g9
(I0
tS'b'
tRp559
(I1
(tg12
I00
S"vb'vb'\x9e?"
tbag8
(g9
(I0
tS'b'
tRp560
(I1
(tg12
I00
S'\xbe\x0c\xf9\xbd\x0c\xf9\x9d?'
tbaa(lp561
g8
(g9
(I0
tS'b'
tRp562
(I1
(tg12
I00
S'\x1d\x93\xf5\x1c\x93\xf5\x9c?'
tbag8
(g9
(I0
tS'b'
tRp563
(I1
(tg12
I00
S'\x91\xdf\xcb\x90\xdf\xcb\x98?'
tbag8
(g9
(I0
tS'b'
tRp564
(I1
(tg12
I00
S'\x1b}\xa4\x1a}\xa4\x9a?'
tbag8
(g9
(I0
tS'b'
tRp565
(I1
(tg12
I00
S'\x8b(\x01\x8b(\x01\x9b?'
tbag8
(g9
(I0
tS'b'
tRp566
(I1
(tg12
I00
S'n\x95\x0bn\x95\x0b\x9e?'
tbag8
(g9
(I0
tS'b'
tRp567
(I1
(tg12
I00
S'Na\x9cMa\x9c\x9d?'
tbag8
(g9
(I0
tS'b'
tRp568
(I1
(tg12
I00
S'n\x95\x0bn\x95\x0b\x9e?'
tbag8
(g9
(I0
tS'b'
tRp569
(I1
(tg12
I00
S'\xa4\x1a}\xa4\x1a}\x9c?'
tbag8
(g9
(I0
tS'b'
tRp570
(I1
(tg12
I00
S'\x85q6\x85q6\x9d?'
tbag8
(g9
(I0
tS'b'
tRp571
(I1
(tg12
I00
S'\xc5N\xec\xc4N\xec\x9c?'
tbaa(lp572
g8
(g9
(I0
tS'b'
tRp573
(I1
(tg12
I00
S'\xda\x14\xc6\xd9\x14\xc6\x99?'
tbag8
(g9
(I0
tS'b'
tRp574
(I1
(tg12
I00
S'\x9b\xc28\x9b\xc28\x9b?'
tbag8
(g9
(I0
tS'b'
tRp575
(I1
(tg12
I00
S'\xfaH5\xfaH5\x9a?'
tbag8
(g9
(I0
tS'b'
tRp576
(I1
(tg12
I00
S'\xbc\xf6\xa7\xbb\xf6\xa7\x9b?'
tbag8
(g9
(I0
tS'b'
tRp577
(I1
(tg12
I00
S'\xc4\xc3\xc3\xc3\xc3\xc3\x9b?'
tbag8
(g9
(I0
tS'b'
tRp578
(I1
(tg12
I00
S'KKKKKK\x9b?'
tbag8
(g9
(I0
tS'b'
tRp579
(I1
(tg12
I00
S'\xec\xc4N\xec\xc4N\x9c?'
tbag8
(g9
(I0
tS'b'
tRp580
(I1
(tg12
I00
S'U\xa3\x8fT\xa3\x8f\x9c?'
tbag8
(g9
(I0
tS'b'
tRp581
(I1
(tg12
I00
S'<<<<<<\x9c?'
tbag8
(g9
(I0
tS'b'
tRp582
(I1
(tg12
I00
S'\xf6\x1c\x93\xf5\x1c\x93\x9d?'
tbaa(lp583
g8
(g9
(I0
tS'b'
tRp584
(I1
(tg12
I00
S'\xd2G\xaa\xd1G\xaa\x99?'
tbag8
(g9
(I0
tS'b'
tRp585
(I1
(tg12
I00
S';\xb1\x13;\xb1\x13\x9b?'
tbag8
(g9
(I0
tS'b'
tRp586
(I1
(tg12
I00
S'\x13\xb0\x88\x12\xb0\x88\x9a?'
tbag8
(g9
(I0
tS'b'
tRp587
(I1
(tg12
I00
S'\x03\xa1y\x03\xa1y\x9b?'
tbag8
(g9
(I0
tS'b'
tRp588
(I1
(tg12
I00
S'\xdc*\x17\xdc*\x17\x9c?'
tbag8
(g9
(I0
tS'b'
tRp589
(I1
(tg12
I00
S';\xb1\x13;\xb1\x13\x9b?'
tbag8
(g9
(I0
tS'b'
tRp590
(I1
(tg12
I00
S'S\x18gS\x18g\x9b?'
tbag8
(g9
(I0
tS'b'
tRp591
(I1
(tg12
I00
S'|\x19\xf2{\x19\xf2\x9b?'
tbag8
(g9
(I0
tS'b'
tRp592
(I1
(tg12
I00
S'~/C~/C\x9e?'
tbag8
(g9
(I0
tS'b'
tRp593
(I1
(tg12
I00
S'%`\x11%`\x11\x9d?'
tbaa(lp594
g8
(g9
(I0
tS'b'
tRp595
(I1
(tg12
I00
S'\xa2\x04,\xa2\x04,\x9a?'
tbag8
(g9
(I0
tS'b'
tRp596
(I1
(tg12
I00
S'\n\xe3l\n\xe3l\x9a?'
tbag8
(g9
(I0
tS'b'
tRp597
(I1
(tg12
I00
S'\xda\x14\xc6\xd9\x14\xc6\x99?'
tbag8
(g9
(I0
tS'b'
tRp598
(I1
(tg12
I00
S'3\xe4\xf72\xe4\xf7\x9a?'
tbag8
(g9
(I0
tS'b'
tRp599
(I1
(tg12
I00
S'\xdb\x9f\xee\xda\x9f\xee\x9a?'
tbag8
(g9
(I0
tS'b'
tRp600
(I1
(tg12
I00
S'\xf4\x91j\xf4\x91j\x9c?'
tbag8
(g9
(I0
tS'b'
tRp601
(I1
(tg12
I00
S'\xf4\x91j\xf4\x91j\x9c?'
tbag8
(g9
(I0
tS'b'
tRp602
(I1
(tg12
I00
S'%`\x11%`\x11\x9d?'
tbag8
(g9
(I0
tS'b'
tRp603
(I1
(tg12
I00
S'4o 4o \x9c?'
tbag8
(g9
(I0
tS'b'
tRp604
(I1
(tg12
I00
S'\x9cMa\x9cMa\x9c?'
tbaa(lp605
g8
(g9
(I0
tS'b'
tRp606
(I1
(tg12
I00
S'\xe2\xe1\xe1\xe1\xe1\xe1\x99?'
tbag8
(g9
(I0
tS'b'
tRp607
(I1
(tg12
I00
S'\x92j\xf4\x91j\xf4\x99?'
tbag8
(g9
(I0
tS'b'
tRp608
(I1
(tg12
I00
S'\x19\xf2{\x19\xf2{\x99?'
tbag8
(g9
(I0
tS'b'
tRp609
(I1
(tg12
I00
S'KKKKKK\x9b?'
tbag8
(g9
(I0
tS'b'
tRp610
(I1
(tg12
I00
S'\n\xe3l\n\xe3l\x9a?'
tbag8
(g9
(I0
tS'b'
tRp611
(I1
(tg12
I00
S'\x02\x16Q\x02\x16Q\x9a?'
tbag8
(g9
(I0
tS'b'
tRp612
(I1
(tg12
I00
S'ZZZZZZ\x9a?'
tbag8
(g9
(I0
tS'b'
tRp613
(I1
(tg12
I00
S'\x9b\xc28\x9b\xc28\x9b?'
tbag8
(g9
(I0
tS'b'
tRp614
(I1
(tg12
I00
S'\r\xf9\xbd\x0c\xf9\xbd\x9c?'
tbag8
(g9
(I0
tS'b'
tRp615
(I1
(tg12
I00
S'\xe4\xf72\xe4\xf72\x9c?'
tbaa(lp616
g8
(g9
(I0
tS'b'
tRp617
(I1
(tg12
I00
S'\xf9\xbd\x0c\xf9\xbd\x0c\x99?'
tbag8
(g9
(I0
tS'b'
tRp618
(I1
(tg12
I00
S'ZZZZZZ\x9a?'
tbag8
(g9
(I0
tS'b'
tRp619
(I1
(tg12
I00
S'\xb2\x9ec\xb2\x9ec\x9a?'
tbag8
(g9
(I0
tS'b'
tRp620
(I1
(tg12
I00
S'"\xbf\x97!\xbf\x97\x99?'
tbag8
(g9
(I0
tS'b'
tRp621
(I1
(tg12
I00
S'\xfb\xd3]\xfb\xd3]\x9b?'
tbag8
(g9
(I0
tS'b'
tRp622
(I1
(tg12
I00
S'\x8b(\x01\x8b(\x01\x9b?'
tbag8
(g9
(I0
tS'b'
tRp623
(I1
(tg12
I00
S'U\xa3\x8fT\xa3\x8f\x9c?'
tbag8
(g9
(I0
tS'b'
tRp624
(I1
(tg12
I00
S'\x84\xe6\r\x84\xe6\r\x9c?'
tbag8
(g9
(I0
tS'b'
tRp625
(I1
(tg12
I00
S'B\xf3\x06B\xf3\x06\x9a?'
tbag8
(g9
(I0
tS'b'
tRp626
(I1
(tg12
I00
S'KKKKKK\x9b?'
tbaa(lp627
g8
(g9
(I0
tS'b'
tRp628
(I1
(tg12
I00
S'Q\x02\x16Q\x02\x16\x99?'
tbag8
(g9
(I0
tS'b'
tRp629
(I1
(tg12
I00
S'\xaa\xd1G\xaa\xd1G\x9a?'
tbag8
(g9
(I0
tS'b'
tRp630
(I1
(tg12
I00
S'\xb2\x9ec\xb2\x9ec\x9a?'
tbag8
(g9
(I0
tS'b'
tRp631
(I1
(tg12
I00
S'iiiiii\x99?'
tbag8
(g9
(I0
tS'b'
tRp632
(I1
(tg12
I00
S'\x8c\xb3)\x8c\xb3)\x9c?'
tbag8
(g9
(I0
tS'b'
tRp633
(I1
(tg12
I00
S'R\x8d>R\x8d>\x9a?'
tbag8
(g9
(I0
tS'b'
tRp634
(I1
(tg12
I00
S'\x13\xb0\x88\x12\xb0\x88\x9a?'
tbag8
(g9
(I0
tS'b'
tRp635
(I1
(tg12
I00
S'\x13\xb0\x88\x12\xb0\x88\x9a?'
tbag8
(g9
(I0
tS'b'
tRp636
(I1
(tg12
I00
S'\xea\xae\xfd\xe9\xae\xfd\x99?'
tbag8
(g9
(I0
tS'b'
tRp637
(I1
(tg12
I00
S'\x03\xa1y\x03\xa1y\x9b?'
tbaa(lp638
g8
(g9
(I0
tS'b'
tRp639
(I1
(tg12
I00
S'p\xab\\p\xab\\\x98?'
tbag8
(g9
(I0
tS'b'
tRp640
(I1
(tg12
I00
S'\x10\x9a7\x10\x9a7\x98?'
tbag8
(g9
(I0
tS'b'
tRp641
(I1
(tg12
I00
S'\xfft\xd7\xfet\xd7\x96?'
tbag8
(g9
(I0
tS'b'
tRp642
(I1
(tg12
I00
S')\x01\x8b(\x01\x8b\x98?'
tbag8
(g9
(I0
tS'b'
tRp643
(I1
(tg12
I00
S'\x01\x8b(\x01\x8b(\x99?'
tbag8
(g9
(I0
tS'b'
tRp644
(I1
(tg12
I00
S'Y\xcf1Y\xcf1\x99?'
tbag8
(g9
(I0
tS'b'
tRp645
(I1
(tg12
I00
S'\xf1\xf0\xf0\xf0\xf0\xf0\x98?'
tbag8
(g9
(I0
tS'b'
tRp646
(I1
(tg12
I00
S'\xcc\x90\xdf\xcb\x90\xdf\x9b?'
tbag8
(g9
(I0
tS'b'
tRp647
(I1
(tg12
I00
S'\xa3\x8fT\xa3\x8fT\x9b?'
tbag8
(g9
(I0
tS'b'
tRp648
(I1
(tg12
I00
S'J\xc0"J\xc0"\x9a?'
tbaa(lp649
g8
(g9
(I0
tS'b'
tRp650
(I1
(tg12
I00
S'\x18gS\x18gS\x98?'
tbag8
(g9
(I0
tS'b'
tRp651
(I1
(tg12
I00
S'\xfaH5\xfaH5\x9a?'
tbag8
(g9
(I0
tS'b'
tRp652
(I1
(tg12
I00
S'I5\xfaH5\xfa\x98?'
tbag8
(g9
(I0
tS'b'
tRp653
(I1
(tg12
I00
S'ZZZZZZ\x9a?'
tbag8
(g9
(I0
tS'b'
tRp654
(I1
(tg12
I00
S'\xcb\x05\xb7\xca\x05\xb7\x9a?'
tbag8
(g9
(I0
tS'b'
tRp655
(I1
(tg12
I00
S'\n\xe3l\n\xe3l\x9a?'
tbag8
(g9
(I0
tS'b'
tRp656
(I1
(tg12
I00
S'R\x8d>R\x8d>\x9a?'
tbag8
(g9
(I0
tS'b'
tRp657
(I1
(tg12
I00
S'\xa3\x8fT\xa3\x8fT\x9b?'
tbag8
(g9
(I0
tS'b'
tRp658
(I1
(tg12
I00
S'\x8a\x9d\xd8\x89\x9d\xd8\x99?'
tbag8
(g9
(I0
tS'b'
tRp659
(I1
(tg12
I00
S'\x9b\xc28\x9b\xc28\x9b?'
tbaa(lp660
g8
(g9
(I0
tS'b'
tRp661
(I1
(tg12
I00
S'\xd9\x89\x9d\xd8\x89\x9d\x98?'
tbag8
(g9
(I0
tS'b'
tRp662
(I1
(tg12
I00
S'\xb9\xe0V\xb9\xe0V\x99?'
tbag8
(g9
(I0
tS'b'
tRp663
(I1
(tg12
I00
S'XD\tXD\t\x98?'
tbag8
(g9
(I0
tS'b'
tRp664
(I1
(tg12
I00
S'+\x17\xdc*\x17\xdc\x9a?'
tbag8
(g9
(I0
tS'b'
tRp665
(I1
(tg12
I00
S'\xd9\x89\x9d\xd8\x89\x9d\x98?'
tbag8
(g9
(I0
tS'b'
tRp666
(I1
(tg12
I00
S'\n\xe3l\n\xe3l\x9a?'
tbag8
(g9
(I0
tS'b'
tRp667
(I1
(tg12
I00
S'2Y\xcf1Y\xcf\x99?'
tbag8
(g9
(I0
tS'b'
tRp668
(I1
(tg12
I00
S'*\x8c\xb3)\x8c\xb3\x99?'
tbag8
(g9
(I0
tS'b'
tRp669
(I1
(tg12
I00
S'S\x18gS\x18g\x9b?'
tbag8
(g9
(I0
tS'b'
tRp670
(I1
(tg12
I00
S's\xc1\xadr\xc1\xad\x9a?'
tbaa(lp671
g8
(g9
(I0
tS'b'
tRp672
(I1
(tg12
I00
S'\xf0e\xc8\xefe\xc8\x97?'
tbag8
(g9
(I0
tS'b'
tRp673
(I1
(tg12
I00
S'\xb7\xca\x05\xb7\xca\x05\x97?'
tbag8
(g9
(I0
tS'b'
tRp674
(I1
(tg12
I00
S'\x10\x9a7\x10\x9a7\x98?'
tbag8
(g9
(I0
tS'b'
tRp675
(I1
(tg12
I00
S'Y\xcf1Y\xcf1\x99?'
tbag8
(g9
(I0
tS'b'
tRp676
(I1
(tg12
I00
S'2Y\xcf1Y\xcf\x99?'
tbag8
(g9
(I0
tS'b'
tRp677
(I1
(tg12
I00
S'B\xf3\x06B\xf3\x06\x9a?'
tbag8
(g9
(I0
tS'b'
tRp678
(I1
(tg12
I00
S'\xea\xae\xfd\xe9\xae\xfd\x99?'
tbag8
(g9
(I0
tS'b'
tRp679
(I1
(tg12
I00
S'\x9b\xc28\x9b\xc28\x9b?'
tbag8
(g9
(I0
tS'b'
tRp680
(I1
(tg12
I00
S'\xad\xe7\x98\xac\xe7\x98\x9c?'
tbag8
(g9
(I0
tS'b'
tRp681
(I1
(tg12
I00
S'\xe3l\n\xe3l\n\x9b?'
tbaa(lp682
g8
(g9
(I0
tS'b'
tRp683
(I1
(tg12
I00
S'\x01\x8b(\x01\x8b(\x99?'
tbag8
(g9
(I0
tS'b'
tRp684
(I1
(tg12
I00
S'@\xdd\xb5?\xdd\xb5\x97?'
tbag8
(g9
(I0
tS'b'
tRp685
(I1
(tg12
I00
S'\xf82\xe4\xf72\xe4\x97?'
tbag8
(g9
(I0
tS'b'
tRp686
(I1
(tg12
I00
S'\tXD\tXD\x99?'
tbag8
(g9
(I0
tS'b'
tRp687
(I1
(tg12
I00
S'H\xaa\xd1G\xaa\xd1\x97?'
tbag8
(g9
(I0
tS'b'
tRp688
(I1
(tg12
I00
S'\xd9\x89\x9d\xd8\x89\x9d\x98?'
tbag8
(g9
(I0
tS'b'
tRp689
(I1
(tg12
I00
S'\x02\x16Q\x02\x16Q\x9a?'
tbag8
(g9
(I0
tS'b'
tRp690
(I1
(tg12
I00
S'\xcaz\x8e\xc9z\x8e\x99?'
tbag8
(g9
(I0
tS'b'
tRp691
(I1
(tg12
I00
S'\x8b(\x01\x8b(\x01\x9b?'
tbag8
(g9
(I0
tS'b'
tRp692
(I1
(tg12
I00
S'\x14;\xb1\x13;\xb1\x9b?'
tbaa(lp693
g8
(g9
(I0
tS'b'
tRp694
(I1
(tg12
I00
S'\xf0e\xc8\xefe\xc8\x97?'
tbag8
(g9
(I0
tS'b'
tRp695
(I1
(tg12
I00
S'Pw\xedOw\xed\x97?'
tbag8
(g9
(I0
tS'b'
tRp696
(I1
(tg12
I00
S'J\xc0"J\xc0"\x9a?'
tbag8
(g9
(I0
tS'b'
tRp697
(I1
(tg12
I00
S'\xf82\xe4\xf72\xe4\x97?'
tbag8
(g9
(I0
tS'b'
tRp698
(I1
(tg12
I00
S'\xf9\xbd\x0c\xf9\xbd\x0c\x99?'
tbag8
(g9
(I0
tS'b'
tRp699
(I1
(tg12
I00
S'\xbak\x7f\xbak\x7f\x9a?'
tbag8
(g9
(I0
tS'b'
tRp700
(I1
(tg12
I00
S'\x18gS\x18gS\x98?'
tbag8
(g9
(I0
tS'b'
tRp701
(I1
(tg12
I00
S'\x91\xdf\xcb\x90\xdf\xcb\x98?'
tbag8
(g9
(I0
tS'b'
tRp702
(I1
(tg12
I00
S'\n\xe3l\n\xe3l\x9a?'
tbag8
(g9
(I0
tS'b'
tRp703
(I1
(tg12
I00
S'tL\xd6sL\xd6\x9b?'
tbaa(lp704
g8
(g9
(I0
tS'b'
tRp705
(I1
(tg12
I00
S'\xa9F\x1f\xa9F\x1f\x99?'
tbag8
(g9
(I0
tS'b'
tRp706
(I1
(tg12
I00
S'6\x85q6\x85q\x96?'
tbag8
(g9
(I0
tS'b'
tRp707
(I1
(tg12
I00
S'h\xde@h\xde@\x98?'
tbag8
(g9
(I0
tS'b'
tRp708
(I1
(tg12
I00
S'\x98!\xbf\x97!\xbf\x97?'
tbag8
(g9
(I0
tS'b'
tRp709
(I1
(tg12
I00
S'ZZZZZZ\x9a?'
tbag8
(g9
(I0
tS'b'
tRp710
(I1
(tg12
I00
S'\xb9\xe0V\xb9\xe0V\x99?'
tbag8
(g9
(I0
tS'b'
tRp711
(I1
(tg12
I00
S'\xcaz\x8e\xc9z\x8e\x99?'
tbag8
(g9
(I0
tS'b'
tRp712
(I1
(tg12
I00
S'\xb2\x9ec\xb2\x9ec\x9a?'
tbag8
(g9
(I0
tS'b'
tRp713
(I1
(tg12
I00
S'Y\xcf1Y\xcf1\x99?'
tbag8
(g9
(I0
tS'b'
tRp714
(I1
(tg12
I00
S'\xc1\xadr\xc1\xadr\x99?'
tbaa(lp715
g8
(g9
(I0
tS'b'
tRp716
(I1
(tg12
I00
S'xxxxxx\x98?'
tbag8
(g9
(I0
tS'b'
tRp717
(I1
(tg12
I00
S'\xd1\xbc\x81\xd0\xbc\x81\x98?'
tbag8
(g9
(I0
tS'b'
tRp718
(I1
(tg12
I00
S'\xbe\x0c\xf9\xbd\x0c\xf9\x95?'
tbag8
(g9
(I0
tS'b'
tRp719
(I1
(tg12
I00
S'w\xedOw\xedO\x97?'
tbag8
(g9
(I0
tS'b'
tRp720
(I1
(tg12
I00
S'ZZZZZZ\x9a?'
tbag8
(g9
(I0
tS'b'
tRp721
(I1
(tg12
I00
S'Y\xcf1Y\xcf1\x99?'
tbag8
(g9
(I0
tS'b'
tRp722
(I1
(tg12
I00
S'\x98!\xbf\x97!\xbf\x97?'
tbag8
(g9
(I0
tS'b'
tRp723
(I1
(tg12
I00
S')\x01\x8b(\x01\x8b\x98?'
tbag8
(g9
(I0
tS'b'
tRp724
(I1
(tg12
I00
S'\xa9F\x1f\xa9F\x1f\x99?'
tbag8
(g9
(I0
tS'b'
tRp725
(I1
(tg12
I00
S'd\xb2\x9ec\xb2\x9e\x9b?'
tbaa(lp726
g8
(g9
(I0
tS'b'
tRp727
(I1
(tg12
I00
S'\xb7\xca\x05\xb7\xca\x05\x97?'
tbag8
(g9
(I0
tS'b'
tRp728
(I1
(tg12
I00
S'\xcaz\x8e\xc9z\x8e\x99?'
tbag8
(g9
(I0
tS'b'
tRp729
(I1
(tg12
I00
S'9\x9b\xc28\x9b\xc2\x98?'
tbag8
(g9
(I0
tS'b'
tRp730
(I1
(tg12
I00
S'\tXD\tXD\x99?'
tbag8
(g9
(I0
tS'b'
tRp731
(I1
(tg12
I00
S'\xe0\xcb\x90\xdf\xcb\x90\x97?'
tbag8
(g9
(I0
tS'b'
tRp732
(I1
(tg12
I00
S' 4o 4o\x98?'
tbag8
(g9
(I0
tS'b'
tRp733
(I1
(tg12
I00
S'\xaa\xd1G\xaa\xd1G\x9a?'
tbag8
(g9
(I0
tS'b'
tRp734
(I1
(tg12
I00
S'"\xbf\x97!\xbf\x97\x99?'
tbag8
(g9
(I0
tS'b'
tRp735
(I1
(tg12
I00
S'\x1b}\xa4\x1a}\xa4\x9a?'
tbag8
(g9
(I0
tS'b'
tRp736
(I1
(tg12
I00
S'\xa2\x04,\xa2\x04,\x9a?'
tbaa(lp737
g8
(g9
(I0
tS'b'
tRp738
(I1
(tg12
I00
S'\x18gS\x18gS\x98?'
tbag8
(g9
(I0
tS'b'
tRp739
(I1
(tg12
I00
S'\xe0\xcb\x90\xdf\xcb\x90\x97?'
tbag8
(g9
(I0
tS'b'
tRp740
(I1
(tg12
I00
S'\xfft\xd7\xfet\xd7\x96?'
tbag8
(g9
(I0
tS'b'
tRp741
(I1
(tg12
I00
S'w\xedOw\xedO\x97?'
tbag8
(g9
(I0
tS'b'
tRp742
(I1
(tg12
I00
S'\x18gS\x18gS\x98?'
tbag8
(g9
(I0
tS'b'
tRp743
(I1
(tg12
I00
S'\tXD\tXD\x99?'
tbag8
(g9
(I0
tS'b'
tRp744
(I1
(tg12
I00
S'\xe9#\xd5\xe8#\xd5\x98?'
tbag8
(g9
(I0
tS'b'
tRp745
(I1
(tg12
I00
S'\xc0"J\xc0"J\x98?'
tbag8
(g9
(I0
tS'b'
tRp746
(I1
(tg12
I00
S'`\x11%`\x11%\x98?'
tbag8
(g9
(I0
tS'b'
tRp747
(I1
(tg12
I00
S'R\x8d>R\x8d>\x9a?'
tbaa(lp748
g8
(g9
(I0
tS'b'
tRp749
(I1
(tg12
I00
S'=\xc7d=\xc7d\x95?'
tbag8
(g9
(I0
tS'b'
tRp750
(I1
(tg12
I00
S'\xb6?\xdd\xb5?\xdd\x95?'
tbag8
(g9
(I0
tS'b'
tRp751
(I1
(tg12
I00
S'\xb8U.\xb8U.\x98?'
tbag8
(g9
(I0
tS'b'
tRp752
(I1
(tg12
I00
S'\x00\x00\x00\x00\x00\x00\x98?'
tbag8
(g9
(I0
tS'b'
tRp753
(I1
(tg12
I00
S'\xd1\xbc\x81\xd0\xbc\x81\x98?'
tbag8
(g9
(I0
tS'b'
tRp754
(I1
(tg12
I00
S'9\x9b\xc28\x9b\xc2\x98?'
tbag8
(g9
(I0
tS'b'
tRp755
(I1
(tg12
I00
S'h\xde@h\xde@\x98?'
tbag8
(g9
(I0
tS'b'
tRp756
(I1
(tg12
I00
S'\xfaH5\xfaH5\x9a?'
tbag8
(g9
(I0
tS'b'
tRp757
(I1
(tg12
I00
S'p\xab\\p\xab\\\x98?'
tbag8
(g9
(I0
tS'b'
tRp758
(I1
(tg12
I00
S'\n\xe3l\n\xe3l\x9a?'
tbaa(lp759
g8
(g9
(I0
tS'b'
tRp760
(I1
(tg12
I00
S'\x00\x00\x00\x00\x00\x00\x98?'
tbag8
(g9
(I0
tS'b'
tRp761
(I1
(tg12
I00
S'\xb8U.\xb8U.\x98?'
tbag8
(g9
(I0
tS'b'
tRp762
(I1
(tg12
I00
S'9\x9b\xc28\x9b\xc2\x98?'
tbag8
(g9
(I0
tS'b'
tRp763
(I1
(tg12
I00
S'\xd1\xbc\x81\xd0\xbc\x81\x98?'
tbag8
(g9
(I0
tS'b'
tRp764
(I1
(tg12
I00
S'\x90T\xa3\x8fT\xa3\x97?'
tbag8
(g9
(I0
tS'b'
tRp765
(I1
(tg12
I00
S'\x82\xd0\xbc\x81\xd0\xbc\x99?'
tbag8
(g9
(I0
tS'b'
tRp766
(I1
(tg12
I00
S'\xea\xae\xfd\xe9\xae\xfd\x99?'
tbag8
(g9
(I0
tS'b'
tRp767
(I1
(tg12
I00
S'\x98!\xbf\x97!\xbf\x97?'
tbag8
(g9
(I0
tS'b'
tRp768
(I1
(tg12
I00
S'\xa1y\x03\xa1y\x03\x99?'
tbag8
(g9
(I0
tS'b'
tRp769
(I1
(tg12
I00
S'\xe1V\xb9\xe0V\xb9\x98?'
tbaa(lp770
g8
(g9
(I0
tS'b'
tRp771
(I1
(tg12
I00
S'_\x86\xfc^\x86\xfc\x96?'
tbag8
(g9
(I0
tS'b'
tRp772
(I1
(tg12
I00
S'XD\tXD\t\x98?'
tbag8
(g9
(I0
tS'b'
tRp773
(I1
(tg12
I00
S'Pw\xedOw\xed\x97?'
tbag8
(g9
(I0
tS'b'
tRp774
(I1
(tg12
I00
S'\x10\x9a7\x10\x9a7\x98?'
tbag8
(g9
(I0
tS'b'
tRp775
(I1
(tg12
I00
S'\x17\xdc*\x17\xdc*\x97?'
tbag8
(g9
(I0
tS'b'
tRp776
(I1
(tg12
I00
S'\xf2{\x19\xf2{\x19\x9a?'
tbag8
(g9
(I0
tS'b'
tRp777
(I1
(tg12
I00
S'\xef\xda\x9f\xee\xda\x9f\x96?'
tbag8
(g9
(I0
tS'b'
tRp778
(I1
(tg12
I00
S'\tXD\tXD\x99?'
tbag8
(g9
(I0
tS'b'
tRp779
(I1
(tg12
I00
S'\xf1\xf0\xf0\xf0\xf0\xf0\x98?'
tbag8
(g9
(I0
tS'b'
tRp780
(I1
(tg12
I00
S'\xb9\xe0V\xb9\xe0V\x99?'
tbaa(lp781
g8
(g9
(I0
tS'b'
tRp782
(I1
(tg12
I00
S'\x06\xb7\xca\x05\xb7\xca\x95?'
tbag8
(g9
(I0
tS'b'
tRp783
(I1
(tg12
I00
S'\x98!\xbf\x97!\xbf\x97?'
tbag8
(g9
(I0
tS'b'
tRp784
(I1
(tg12
I00
S'8\x10\x9a7\x10\x9a\x97?'
tbag8
(g9
(I0
tS'b'
tRp785
(I1
(tg12
I00
S'O\xec\xc4N\xec\xc4\x96?'
tbag8
(g9
(I0
tS'b'
tRp786
(I1
(tg12
I00
S'\x81E\x94\x80E\x94\x98?'
tbag8
(g9
(I0
tS'b'
tRp787
(I1
(tg12
I00
S"'vb'vb\x97?"
tbag8
(g9
(I0
tS'b'
tRp788
(I1
(tg12
I00
S'\x99\xac\xe7\x98\xac\xe7\x98?'
tbag8
(g9
(I0
tS'b'
tRp789
(I1
(tg12
I00
S'1\xce\xa60\xce\xa6\x98?'
tbag8
(g9
(I0
tS'b'
tRp790
(I1
(tg12
I00
S'\xa0\xee\xda\x9f\xee\xda\x97?'
tbag8
(g9
(I0
tS'b'
tRp791
(I1
(tg12
I00
S'Pw\xedOw\xed\x97?'
tbaa(lp792
g8
(g9
(I0
tS'b'
tRp793
(I1
(tg12
I00
S'.\xb8U.\xb8U\x96?'
tbag8
(g9
(I0
tS'b'
tRp794
(I1
(tg12
I00
S'\x88\x87\x87\x87\x87\x87\x97?'
tbag8
(g9
(I0
tS'b'
tRp795
(I1
(tg12
I00
S'\x11%`\x11%`\x99?'
tbag8
(g9
(I0
tS'b'
tRp796
(I1
(tg12
I00
S'\xf1\xf0\xf0\xf0\xf0\xf0\x98?'
tbag8
(g9
(I0
tS'b'
tRp797
(I1
(tg12
I00
S'`\x11%`\x11%\x98?'
tbag8
(g9
(I0
tS'b'
tRp798
(I1
(tg12
I00
S'\xf82\xe4\xf72\xe4\x97?'
tbag8
(g9
(I0
tS'b'
tRp799
(I1
(tg12
I00
S'\xa1y\x03\xa1y\x03\x99?'
tbag8
(g9
(I0
tS'b'
tRp800
(I1
(tg12
I00
S'a\x9cMa\x9cM\x99?'
tbag8
(g9
(I0
tS'b'
tRp801
(I1
(tg12
I00
S'\xe9#\xd5\xe8#\xd5\x98?'
tbag8
(g9
(I0
tS'b'
tRp802
(I1
(tg12
I00
S'\xb7\xca\x05\xb7\xca\x05\x97?'
tbaa(lp803
g8
(g9
(I0
tS'b'
tRp804
(I1
(tg12
I00
S'6\x85q6\x85q\x96?'
tbag8
(g9
(I0
tS'b'
tRp805
(I1
(tg12
I00
S'=\xc7d=\xc7d\x95?'
tbag8
(g9
(I0
tS'b'
tRp806
(I1
(tg12
I00
S'\xe0\xcb\x90\xdf\xcb\x90\x97?'
tbag8
(g9
(I0
tS'b'
tRp807
(I1
(tg12
I00
S'W\xb9\xe0V\xb9\xe0\x96?'
tbag8
(g9
(I0
tS'b'
tRp808
(I1
(tg12
I00
S'\xc6\xd9\x14\xc6\xd9\x14\x96?'
tbag8
(g9
(I0
tS'b'
tRp809
(I1
(tg12
I00
S'\xe8\x98\xac\xe7\x98\xac\x97?'
tbag8
(g9
(I0
tS'b'
tRp810
(I1
(tg12
I00
S'\x90T\xa3\x8fT\xa3\x97?'
tbag8
(g9
(I0
tS'b'
tRp811
(I1
(tg12
I00
S'\x81E\x94\x80E\x94\x98?'
tbag8
(g9
(I0
tS'b'
tRp812
(I1
(tg12
I00
S'\xa8\xbb\xf6\xa7\xbb\xf6\x97?'
tbag8
(g9
(I0
tS'b'
tRp813
(I1
(tg12
I00
S'\xaf\xfd\xe9\xae\xfd\xe9\x96?'
tbaa(lp814
g8
(g9
(I0
tS'b'
tRp815
(I1
(tg12
I00
S'\xbf\x97!\xbf\x97!\x97?'
tbag8
(g9
(I0
tS'b'
tRp816
(I1
(tg12
I00
S'8\x10\x9a7\x10\x9a\x97?'
tbag8
(g9
(I0
tS'b'
tRp817
(I1
(tg12
I00
S'\x8e\xc9z\x8e\xc9z\x96?'
tbag8
(g9
(I0
tS'b'
tRp818
(I1
(tg12
I00
S'\x06\xb7\xca\x05\xb7\xca\x95?'
tbag8
(g9
(I0
tS'b'
tRp819
(I1
(tg12
I00
S'\x88\x87\x87\x87\x87\x87\x97?'
tbag8
(g9
(I0
tS'b'
tRp820
(I1
(tg12
I00
S'Pw\xedOw\xed\x97?'
tbag8
(g9
(I0
tS'b'
tRp821
(I1
(tg12
I00
S'\x9a7\x10\x9a7\x10\x9a?'
tbag8
(g9
(I0
tS'b'
tRp822
(I1
(tg12
I00
S"'vb'vb\x97?"
tbag8
(g9
(I0
tS'b'
tRp823
(I1
(tg12
I00
S'\xa8\xbb\xf6\xa7\xbb\xf6\x97?'
tbag8
(g9
(I0
tS'b'
tRp824
(I1
(tg12
I00
S'\xc0"J\xc0"J\x98?'
tbaa(lp825
g8
(g9
(I0
tS'b'
tRp826
(I1
(tg12
I00
S'_\x86\xfc^\x86\xfc\x96?'
tbag8
(g9
(I0
tS'b'
tRp827
(I1
(tg12
I00
S'\xbe\x0c\xf9\xbd\x0c\xf9\x95?'
tbag8
(g9
(I0
tS'b'
tRp828
(I1
(tg12
I00
S'\xbe\x0c\xf9\xbd\x0c\xf9\x95?'
tbag8
(g9
(I0
tS'b'
tRp829
(I1
(tg12
I00
S'\x0f\x0f\x0f\x0f\x0f\x0f\x97?'
tbag8
(g9
(I0
tS'b'
tRp830
(I1
(tg12
I00
S"'vb'vb\x97?"
tbag8
(g9
(I0
tS'b'
tRp831
(I1
(tg12
I00
S'\x8e\xc9z\x8e\xc9z\x96?'
tbag8
(g9
(I0
tS'b'
tRp832
(I1
(tg12
I00
S'\x7f\xbak\x7f\xbak\x97?'
tbag8
(g9
(I0
tS'b'
tRp833
(I1
(tg12
I00
S'\xce\xa60\xce\xa60\x96?'
tbag8
(g9
(I0
tS'b'
tRp834
(I1
(tg12
I00
S'\xc7d=\xc7d=\x97?'
tbag8
(g9
(I0
tS'b'
tRp835
(I1
(tg12
I00
S'@\xdd\xb5?\xdd\xb5\x97?'
tbaa(lp836
g8
(g9
(I0
tS'b'
tRp837
(I1
(tg12
I00
S'n\x95\x0bn\x95\x0b\x96?'
tbag8
(g9
(I0
tS'b'
tRp838
(I1
(tg12
I00
S'G\x1f\xa9F\x1f\xa9\x96?'
tbag8
(g9
(I0
tS'b'
tRp839
(I1
(tg12
I00
S'F\x94\x80E\x94\x80\x95?'
tbag8
(g9
(I0
tS'b'
tRp840
(I1
(tg12
I00
S'\x10\x9a7\x10\x9a7\x98?'
tbag8
(g9
(I0
tS'b'
tRp841
(I1
(tg12
I00
S'\xe0\xcb\x90\xdf\xcb\x90\x97?'
tbag8
(g9
(I0
tS'b'
tRp842
(I1
(tg12
I00
S'\xfft\xd7\xfet\xd7\x96?'
tbag8
(g9
(I0
tS'b'
tRp843
(I1
(tg12
I00
S'\x17\xdc*\x17\xdc*\x97?'
tbag8
(g9
(I0
tS'b'
tRp844
(I1
(tg12
I00
S'\xfe\xe9\xae\xfd\xe9\xae\x95?'
tbag8
(g9
(I0
tS'b'
tRp845
(I1
(tg12
I00
S')\x01\x8b(\x01\x8b\x98?'
tbag8
(g9
(I0
tS'b'
tRp846
(I1
(tg12
I00
S'_\x86\xfc^\x86\xfc\x96?'
tbaa(lp847
g8
(g9
(I0
tS'b'
tRp848
(I1
(tg12
I00
S'm\n\xe3l\n\xe3\x94?'
tbag8
(g9
(I0
tS'b'
tRp849
(I1
(tg12
I00
S'------\x95?'
tbag8
(g9
(I0
tS'b'
tRp850
(I1
(tg12
I00
S"vb'vb'\x96?"
tbag8
(g9
(I0
tS'b'
tRp851
(I1
(tg12
I00
S'W\xb9\xe0V\xb9\xe0\x96?'
tbag8
(g9
(I0
tS'b'
tRp852
(I1
(tg12
I00
S'\x86\xfc^\x86\xfc^\x96?'
tbag8
(g9
(I0
tS'b'
tRp853
(I1
(tg12
I00
S'\xcd\x1b\x08\xcd\x1b\x08\x95?'
tbag8
(g9
(I0
tS'b'
tRp854
(I1
(tg12
I00
S'\x91\xdf\xcb\x90\xdf\xcb\x98?'
tbag8
(g9
(I0
tS'b'
tRp855
(I1
(tg12
I00
S'\x88\x87\x87\x87\x87\x87\x97?'
tbag8
(g9
(I0
tS'b'
tRp856
(I1
(tg12
I00
S'\xce\xa60\xce\xa60\x96?'
tbag8
(g9
(I0
tS'b'
tRp857
(I1
(tg12
I00
S'\x18gS\x18gS\x98?'
tbaa(lp858
g8
(g9
(I0
tS'b'
tRp859
(I1
(tg12
I00
S'\x06\xb7\xca\x05\xb7\xca\x95?'
tbag8
(g9
(I0
tS'b'
tRp860
(I1
(tg12
I00
S'\xfe\xe9\xae\xfd\xe9\xae\x95?'
tbag8
(g9
(I0
tS'b'
tRp861
(I1
(tg12
I00
S'\xe7\r\x84\xe6\r\x84\x96?'
tbag8
(g9
(I0
tS'b'
tRp862
(I1
(tg12
I00
S'\xb6?\xdd\xb5?\xdd\x95?'
tbag8
(g9
(I0
tS'b'
tRp863
(I1
(tg12
I00
S'\xbe\x0c\xf9\xbd\x0c\xf9\x95?'
tbag8
(g9
(I0
tS'b'
tRp864
(I1
(tg12
I00
S'=\xc7d=\xc7d\x95?'
tbag8
(g9
(I0
tS'b'
tRp865
(I1
(tg12
I00
S'^\xfb\xd3]\xfb\xd3\x95?'
tbag8
(g9
(I0
tS'b'
tRp866
(I1
(tg12
I00
S'\x0e\x84\xe6\r\x84\xe6\x95?'
tbag8
(g9
(I0
tS'b'
tRp867
(I1
(tg12
I00
S'f\xc8\xefe\xc8\xef\x95?'
tbag8
(g9
(I0
tS'b'
tRp868
(I1
(tg12
I00
S'Pw\xedOw\xed\x97?'
tbaa(lp869
g8
(g9
(I0
tS'b'
tRp870
(I1
(tg12
I00
S'\x15\xc6\xd9\x14\xc6\xd9\x94?'
tbag8
(g9
(I0
tS'b'
tRp871
(I1
(tg12
I00
S'<<<<<<\x94?'
tbag8
(g9
(I0
tS'b'
tRp872
(I1
(tg12
I00
S'U\xa3\x8fT\xa3\x8f\x94?'
tbag8
(g9
(I0
tS'b'
tRp873
(I1
(tg12
I00
S'\xf0e\xc8\xefe\xc8\x97?'
tbag8
(g9
(I0
tS'b'
tRp874
(I1
(tg12
I00
S'h\xde@h\xde@\x98?'
tbag8
(g9
(I0
tS'b'
tRp875
(I1
(tg12
I00
S'6\x85q6\x85q\x96?'
tbag8
(g9
(I0
tS'b'
tRp876
(I1
(tg12
I00
S'\x07B\xf3\x06B\xf3\x96?'
tbag8
(g9
(I0
tS'b'
tRp877
(I1
(tg12
I00
S'------\x95?'
tbag8
(g9
(I0
tS'b'
tRp878
(I1
(tg12
I00
S'\x90T\xa3\x8fT\xa3\x97?'
tbag8
(g9
(I0
tS'b'
tRp879
(I1
(tg12
I00
S'\xf1\xf0\xf0\xf0\xf0\xf0\x98?'
tbaa(lp880
g8
(g9
(I0
tS'b'
tRp881
(I1
(tg12
I00
S'Na\x9cMa\x9c\x95?'
tbag8
(g9
(I0
tS'b'
tRp882
(I1
(tg12
I00
S'\x16Q\x02\x16Q\x02\x96?'
tbag8
(g9
(I0
tS'b'
tRp883
(I1
(tg12
I00
S'\xcd\x1b\x08\xcd\x1b\x08\x95?'
tbag8
(g9
(I0
tS'b'
tRp884
(I1
(tg12
I00
S'.\xb8U.\xb8U\x96?'
tbag8
(g9
(I0
tS'b'
tRp885
(I1
(tg12
I00
S'\xe8\x98\xac\xe7\x98\xac\x97?'
tbag8
(g9
(I0
tS'b'
tRp886
(I1
(tg12
I00
S'\xd6sL\xd6sL\x96?'
tbag8
(g9
(I0
tS'b'
tRp887
(I1
(tg12
I00
S'\xc7d=\xc7d=\x97?'
tbag8
(g9
(I0
tS'b'
tRp888
(I1
(tg12
I00
S'\xa0\xee\xda\x9f\xee\xda\x97?'
tbag8
(g9
(I0
tS'b'
tRp889
(I1
(tg12
I00
S'5\xfaH5\xfaH\x95?'
tbag8
(g9
(I0
tS'b'
tRp890
(I1
(tg12
I00
S'\x0f\x0f\x0f\x0f\x0f\x0f\x97?'
tbaa(lp891
g8
(g9
(I0
tS'b'
tRp892
(I1
(tg12
I00
S'\xef\xda\x9f\xee\xda\x9f\x96?'
tbag8
(g9
(I0
tS'b'
tRp893
(I1
(tg12
I00
S'}\xa4\x1a}\xa4\x1a\x95?'
tbag8
(g9
(I0
tS'b'
tRp894
(I1
(tg12
I00
S'\xb6?\xdd\xb5?\xdd\x95?'
tbag8
(g9
(I0
tS'b'
tRp895
(I1
(tg12
I00
S'5\xfaH5\xfaH\x95?'
tbag8
(g9
(I0
tS'b'
tRp896
(I1
(tg12
I00
S'xxxxxx\x98?'
tbag8
(g9
(I0
tS'b'
tRp897
(I1
(tg12
I00
S'XD\tXD\t\x98?'
tbag8
(g9
(I0
tS'b'
tRp898
(I1
(tg12
I00
S'V.\xb8U.\xb8\x95?'
tbag8
(g9
(I0
tS'b'
tRp899
(I1
(tg12
I00
S'\x7f\xbak\x7f\xbak\x97?'
tbag8
(g9
(I0
tS'b'
tRp900
(I1
(tg12
I00
S'~/C~/C\x96?'
tbag8
(g9
(I0
tS'b'
tRp901
(I1
(tg12
I00
S'\x9fc\xb2\x9ec\xb2\x96?'
tbaa(lp902
g8
(g9
(I0
tS'b'
tRp903
(I1
(tg12
I00
S'\x16Q\x02\x16Q\x02\x96?'
tbag8
(g9
(I0
tS'b'
tRp904
(I1
(tg12
I00
S'?R\x8d>R\x8d\x96?'
tbag8
(g9
(I0
tS'b'
tRp905
(I1
(tg12
I00
S'\xf6\x1c\x93\xf5\x1c\x93\x95?'
tbag8
(g9
(I0
tS'b'
tRp906
(I1
(tg12
I00
S']p\xab\\p\xab\x94?'
tbag8
(g9
(I0
tS'b'
tRp907
(I1
(tg12
I00
S'V.\xb8U.\xb8\x95?'
tbag8
(g9
(I0
tS'b'
tRp908
(I1
(tg12
I00
S'\x97\x96\x96\x96\x96\x96\x96?'
tbag8
(g9
(I0
tS'b'
tRp909
(I1
(tg12
I00
S'\xbe\x0c\xf9\xbd\x0c\xf9\x95?'
tbag8
(g9
(I0
tS'b'
tRp910
(I1
(tg12
I00
S'\xb8U.\xb8U.\x98?'
tbag8
(g9
(I0
tS'b'
tRp911
(I1
(tg12
I00
S'\xbe\x0c\xf9\xbd\x0c\xf9\x95?'
tbag8
(g9
(I0
tS'b'
tRp912
(I1
(tg12
I00
S'2Y\xcf1Y\xcf\x99?'
tbaa(lp913
g8
(g9
(I0
tS'b'
tRp914
(I1
(tg12
I00
S"vb'vb'\x96?"
tbag8
(g9
(I0
tS'b'
tRp915
(I1
(tg12
I00
S'\x85q6\x85q6\x95?'
tbag8
(g9
(I0
tS'b'
tRp916
(I1
(tg12
I00
S'\x97\x96\x96\x96\x96\x96\x96?'
tbag8
(g9
(I0
tS'b'
tRp917
(I1
(tg12
I00
S'\xdd\xb5?\xdd\xb5?\x95?'
tbag8
(g9
(I0
tS'b'
tRp918
(I1
(tg12
I00
S'e=\xc7d=\xc7\x94?'
tbag8
(g9
(I0
tS'b'
tRp919
(I1
(tg12
I00
S'n\x95\x0bn\x95\x0b\x96?'
tbag8
(g9
(I0
tS'b'
tRp920
(I1
(tg12
I00
S'\xfe\xe9\xae\xfd\xe9\xae\x95?'
tbag8
(g9
(I0
tS'b'
tRp921
(I1
(tg12
I00
S'\xf0e\xc8\xefe\xc8\x97?'
tbag8
(g9
(I0
tS'b'
tRp922
(I1
(tg12
I00
S'\x1f\xa9F\x1f\xa9F\x97?'
tbag8
(g9
(I0
tS'b'
tRp923
(I1
(tg12
I00
S'1\xce\xa60\xce\xa6\x98?'
tbaa(lp924
g8
(g9
(I0
tS'b'
tRp925
(I1
(tg12
I00
S'\xec\xc4N\xec\xc4N\x94?'
tbag8
(g9
(I0
tS'b'
tRp926
(I1
(tg12
I00
S'\xfd^\x86\xfc^\x86\x94?'
tbag8
(g9
(I0
tS'b'
tRp927
(I1
(tg12
I00
S'\xd6sL\xd6sL\x96?'
tbag8
(g9
(I0
tS'b'
tRp928
(I1
(tg12
I00
S'\xc7d=\xc7d=\x97?'
tbag8
(g9
(I0
tS'b'
tRp929
(I1
(tg12
I00
S'h\xde@h\xde@\x98?'
tbag8
(g9
(I0
tS'b'
tRp930
(I1
(tg12
I00
S'\xde@h\xde@h\x96?'
tbag8
(g9
(I0
tS'b'
tRp931
(I1
(tg12
I00
S'\xc7d=\xc7d=\x97?'
tbag8
(g9
(I0
tS'b'
tRp932
(I1
(tg12
I00
S'w\xedOw\xedO\x97?'
tbag8
(g9
(I0
tS'b'
tRp933
(I1
(tg12
I00
S'\x06\xb7\xca\x05\xb7\xca\x95?'
tbag8
(g9
(I0
tS'b'
tRp934
(I1
(tg12
I00
S'\xd6sL\xd6sL\x96?'
tbaa(lp935
g8
(g9
(I0
tS'b'
tRp936
(I1
(tg12
I00
S'\xedOw\xedOw\x95?'
tbag8
(g9
(I0
tS'b'
tRp937
(I1
(tg12
I00
S'\xc5N\xec\xc4N\xec\x94?'
tbag8
(g9
(I0
tS'b'
tRp938
(I1
(tg12
I00
S'\x95\x0bn\x95\x0bn\x95?'
tbag8
(g9
(I0
tS'b'
tRp939
(I1
(tg12
I00
S'4o 4o \x94?'
tbag8
(g9
(I0
tS'b'
tRp940
(I1
(tg12
I00
S'Na\x9cMa\x9c\x95?'
tbag8
(g9
(I0
tS'b'
tRp941
(I1
(tg12
I00
S'5\xfaH5\xfaH\x95?'
tbag8
(g9
(I0
tS'b'
tRp942
(I1
(tg12
I00
S'\xb7\xca\x05\xb7\xca\x05\x97?'
tbag8
(g9
(I0
tS'b'
tRp943
(I1
(tg12
I00
S'\xc7d=\xc7d=\x97?'
tbag8
(g9
(I0
tS'b'
tRp944
(I1
(tg12
I00
S'\x1e\x1e\x1e\x1e\x1e\x1e\x96?'
tbag8
(g9
(I0
tS'b'
tRp945
(I1
(tg12
I00
S'n\x95\x0bn\x95\x0b\x96?'
tbaa(lp946
g8
(g9
(I0
tS'b'
tRp947
(I1
(tg12
I00
S'\x94\x80E\x94\x80E\x94?'
tbag8
(g9
(I0
tS'b'
tRp948
(I1
(tg12
I00
S'L\xd6sL\xd6s\x94?'
tbag8
(g9
(I0
tS'b'
tRp949
(I1
(tg12
I00
S'\xfd^\x86\xfc^\x86\x94?'
tbag8
(g9
(I0
tS'b'
tRp950
(I1
(tg12
I00
S'\x84\xe6\r\x84\xe6\r\x94?'
tbag8
(g9
(I0
tS'b'
tRp951
(I1
(tg12
I00
S'&\xeb9&\xeb9\x96?'
tbag8
(g9
(I0
tS'b'
tRp952
(I1
(tg12
I00
S'\x05,\xa2\x04,\xa2\x94?'
tbag8
(g9
(I0
tS'b'
tRp953
(I1
(tg12
I00
S'\xaf\xfd\xe9\xae\xfd\xe9\x96?'
tbag8
(g9
(I0
tS'b'
tRp954
(I1
(tg12
I00
S'\x1d\x93\xf5\x1c\x93\xf5\x94?'
tbag8
(g9
(I0
tS'b'
tRp955
(I1
(tg12
I00
S'\xe7\r\x84\xe6\r\x84\x96?'
tbag8
(g9
(I0
tS'b'
tRp956
(I1
(tg12
I00
S'Na\x9cMa\x9c\x95?'
tbaa(lp957
g8
(g9
(I0
tS'b'
tRp958
(I1
(tg12
I00
S']p\xab\\p\xab\x94?'
tbag8
(g9
(I0
tS'b'
tRp959
(I1
(tg12
I00
S'<<<<<<\x94?'
tbag8
(g9
(I0
tS'b'
tRp960
(I1
(tg12
I00
S'\xf6\x1c\x93\xf5\x1c\x93\x95?'
tbag8
(g9
(I0
tS'b'
tRp961
(I1
(tg12
I00
S'\x8d>R\x8d>R\x95?'
tbag8
(g9
(I0
tS'b'
tRp962
(I1
(tg12
I00
S'\xedOw\xedOw\x95?'
tbag8
(g9
(I0
tS'b'
tRp963
(I1
(tg12
I00
S'O\xec\xc4N\xec\xc4\x96?'
tbag8
(g9
(I0
tS'b'
tRp964
(I1
(tg12
I00
S'W\xb9\xe0V\xb9\xe0\x96?'
tbag8
(g9
(I0
tS'b'
tRp965
(I1
(tg12
I00
S'\xa70\xce\xa60\xce\x96?'
tbag8
(g9
(I0
tS'b'
tRp966
(I1
(tg12
I00
S'\x9cMa\x9cMa\x94?'
tbag8
(g9
(I0
tS'b'
tRp967
(I1
(tg12
I00
S'\xa70\xce\xa60\xce\x96?'
tbaa(lp968
g8
(g9
(I0
tS'b'
tRp969
(I1
(tg12
I00
S'\xc5N\xec\xc4N\xec\x94?'
tbag8
(g9
(I0
tS'b'
tRp970
(I1
(tg12
I00
S'u\xd7\xfet\xd7\xfe\x94?'
tbag8
(g9
(I0
tS'b'
tRp971
(I1
(tg12
I00
S'V.\xb8U.\xb8\x95?'
tbag8
(g9
(I0
tS'b'
tRp972
(I1
(tg12
I00
S'.\xb8U.\xb8U\x96?'
tbag8
(g9
(I0
tS'b'
tRp973
(I1
(tg12
I00
S'\xc6\xd9\x14\xc6\xd9\x14\x96?'
tbag8
(g9
(I0
tS'b'
tRp974
(I1
(tg12
I00
S'O\xec\xc4N\xec\xc4\x96?'
tbag8
(g9
(I0
tS'b'
tRp975
(I1
(tg12
I00
S'\xaer\xc1\xadr\xc1\x95?'
tbag8
(g9
(I0
tS'b'
tRp976
(I1
(tg12
I00
S'\x07B\xf3\x06B\xf3\x96?'
tbag8
(g9
(I0
tS'b'
tRp977
(I1
(tg12
I00
S'G\x1f\xa9F\x1f\xa9\x96?'
tbag8
(g9
(I0
tS'b'
tRp978
(I1
(tg12
I00
S'/C~/C~\x97?'
tbaa(lp979
g8
(g9
(I0
tS'b'
tRp980
(I1
(tg12
I00
S'ZZZZZZ\x92?'
tbag8
(g9
(I0
tS'b'
tRp981
(I1
(tg12
I00
S'\x13\xb0\x88\x12\xb0\x88\x92?'
tbag8
(g9
(I0
tS'b'
tRp982
(I1
(tg12
I00
S'------\x95?'
tbag8
(g9
(I0
tS'b'
tRp983
(I1
(tg12
I00
S'\xdd\xb5?\xdd\xb5?\x95?'
tbag8
(g9
(I0
tS'b'
tRp984
(I1
(tg12
I00
S'F\x94\x80E\x94\x80\x95?'
tbag8
(g9
(I0
tS'b'
tRp985
(I1
(tg12
I00
S'^\xfb\xd3]\xfb\xd3\x95?'
tbag8
(g9
(I0
tS'b'
tRp986
(I1
(tg12
I00
S'\x97\x96\x96\x96\x96\x96\x96?'
tbag8
(g9
(I0
tS'b'
tRp987
(I1
(tg12
I00
S'\xb6?\xdd\xb5?\xdd\x95?'
tbag8
(g9
(I0
tS'b'
tRp988
(I1
(tg12
I00
S'\xe7\r\x84\xe6\r\x84\x96?'
tbag8
(g9
(I0
tS'b'
tRp989
(I1
(tg12
I00
S'\x98!\xbf\x97!\xbf\x97?'
tbaa(lp990
g8
(g9
(I0
tS'b'
tRp991
(I1
(tg12
I00
S'\xb4)\x8c\xb3)\x8c\x93?'
tbag8
(g9
(I0
tS'b'
tRp992
(I1
(tg12
I00
S'Na\x9cMa\x9c\x95?'
tbag8
(g9
(I0
tS'b'
tRp993
(I1
(tg12
I00
S'\xd3\xd2\xd2\xd2\xd2\xd2\x92?'
tbag8
(g9
(I0
tS'b'
tRp994
(I1
(tg12
I00
S'\xef\xda\x9f\xee\xda\x9f\x96?'
tbag8
(g9
(I0
tS'b'
tRp995
(I1
(tg12
I00
S'\xd4]\xfb\xd3]\xfb\x93?'
tbag8
(g9
(I0
tS'b'
tRp996
(I1
(tg12
I00
S'\x9fc\xb2\x9ec\xb2\x96?'
tbag8
(g9
(I0
tS'b'
tRp997
(I1
(tg12
I00
S'\x97\x96\x96\x96\x96\x96\x96?'
tbag8
(g9
(I0
tS'b'
tRp998
(I1
(tg12
I00
S'gS\x18gS\x18\x97?'
tbag8
(g9
(I0
tS'b'
tRp999
(I1
(tg12
I00
S'V.\xb8U.\xb8\x95?'
tbag8
(g9
(I0
tS'b'
tRp1000
(I1
(tg12
I00
S'\xa0\xee\xda\x9f\xee\xda\x97?'
tbaa(lp1001
g8
(g9
(I0
tS'b'
tRp1002
(I1
(tg12
I00
S'$\xd5\xe8#\xd5\xe8\x93?'
tbag8
(g9
(I0
tS'b'
tRp1003
(I1
(tg12
I00
S'd\xb2\x9ec\xb2\x9e\x93?'
tbag8
(g9
(I0
tS'b'
tRp1004
(I1
(tg12
I00
S'\x05,\xa2\x04,\xa2\x94?'
tbag8
(g9
(I0
tS'b'
tRp1005
(I1
(tg12
I00
S'\x9cMa\x9cMa\x94?'
tbag8
(g9
(I0
tS'b'
tRp1006
(I1
(tg12
I00
S'\x85q6\x85q6\x95?'
tbag8
(g9
(I0
tS'b'
tRp1007
(I1
(tg12
I00
S'\xa4\x1a}\xa4\x1a}\x94?'
tbag8
(g9
(I0
tS'b'
tRp1008
(I1
(tg12
I00
S'\x85q6\x85q6\x95?'
tbag8
(g9
(I0
tS'b'
tRp1009
(I1
(tg12
I00
S'\xd5\xe8#\xd5\xe8#\x95?'
tbag8
(g9
(I0
tS'b'
tRp1010
(I1
(tg12
I00
S'\xde@h\xde@h\x96?'
tbag8
(g9
(I0
tS'b'
tRp1011
(I1
(tg12
I00
S'\xbe\x0c\xf9\xbd\x0c\xf9\x95?'
tbaa(lp1012
g8
(g9
(I0
tS'b'
tRp1013
(I1
(tg12
I00
S'\x84\xe6\r\x84\xe6\r\x94?'
tbag8
(g9
(I0
tS'b'
tRp1014
(I1
(tg12
I00
S'\xbe\x0c\xf9\xbd\x0c\xf9\x95?'
tbag8
(g9
(I0
tS'b'
tRp1015
(I1
(tg12
I00
S'\xdd\xb5?\xdd\xb5?\x95?'
tbag8
(g9
(I0
tS'b'
tRp1016
(I1
(tg12
I00
S'\xc5N\xec\xc4N\xec\x94?'
tbag8
(g9
(I0
tS'b'
tRp1017
(I1
(tg12
I00
S'\x1d\x93\xf5\x1c\x93\xf5\x94?'
tbag8
(g9
(I0
tS'b'
tRp1018
(I1
(tg12
I00
S'4o 4o \x94?'
tbag8
(g9
(I0
tS'b'
tRp1019
(I1
(tg12
I00
S'\xcd\x1b\x08\xcd\x1b\x08\x95?'
tbag8
(g9
(I0
tS'b'
tRp1020
(I1
(tg12
I00
S'~/C~/C\x96?'
tbag8
(g9
(I0
tS'b'
tRp1021
(I1
(tg12
I00
S'gS\x18gS\x18\x97?'
tbag8
(g9
(I0
tS'b'
tRp1022
(I1
(tg12
I00
S'\xfft\xd7\xfet\xd7\x96?'
tbaa(lp1023
g8
(g9
(I0
tS'b'
tRp1024
(I1
(tg12
I00
S'\x8d>R\x8d>R\x95?'
tbag8
(g9
(I0
tS'b'
tRp1025
(I1
(tg12
I00
S'\xe7\r\x84\xe6\r\x84\x96?'
tbag8
(g9
(I0
tS'b'
tRp1026
(I1
(tg12
I00
S'\xc5N\xec\xc4N\xec\x94?'
tbag8
(g9
(I0
tS'b'
tRp1027
(I1
(tg12
I00
S'5\xfaH5\xfaH\x95?'
tbag8
(g9
(I0
tS'b'
tRp1028
(I1
(tg12
I00
S'\xd5\xe8#\xd5\xe8#\x95?'
tbag8
(g9
(I0
tS'b'
tRp1029
(I1
(tg12
I00
S'\x06\xb7\xca\x05\xb7\xca\x95?'
tbag8
(g9
(I0
tS'b'
tRp1030
(I1
(tg12
I00
S'\xc5N\xec\xc4N\xec\x94?'
tbag8
(g9
(I0
tS'b'
tRp1031
(I1
(tg12
I00
S'\xef\xda\x9f\xee\xda\x9f\x96?'
tbag8
(g9
(I0
tS'b'
tRp1032
(I1
(tg12
I00
S'\xdd\xb5?\xdd\xb5?\x95?'
tbag8
(g9
(I0
tS'b'
tRp1033
(I1
(tg12
I00
S'\xe4\xf72\xe4\xf72\x94?'
tbaa(lp1034
g8
(g9
(I0
tS'b'
tRp1035
(I1
(tg12
I00
S'S\x18gS\x18g\x93?'
tbag8
(g9
(I0
tS'b'
tRp1036
(I1
(tg12
I00
S'------\x95?'
tbag8
(g9
(I0
tS'b'
tRp1037
(I1
(tg12
I00
S'\x05,\xa2\x04,\xa2\x94?'
tbag8
(g9
(I0
tS'b'
tRp1038
(I1
(tg12
I00
S'u\xd7\xfet\xd7\xfe\x94?'
tbag8
(g9
(I0
tS'b'
tRp1039
(I1
(tg12
I00
S'e=\xc7d=\xc7\x94?'
tbag8
(g9
(I0
tS'b'
tRp1040
(I1
(tg12
I00
S'\x94\x80E\x94\x80E\x94?'
tbag8
(g9
(I0
tS'b'
tRp1041
(I1
(tg12
I00
S'\x16Q\x02\x16Q\x02\x96?'
tbag8
(g9
(I0
tS'b'
tRp1042
(I1
(tg12
I00
S'w\xedOw\xedO\x97?'
tbag8
(g9
(I0
tS'b'
tRp1043
(I1
(tg12
I00
S"'vb'vb\x97?"
tbag8
(g9
(I0
tS'b'
tRp1044
(I1
(tg12
I00
S'\xaer\xc1\xadr\xc1\x95?'
tbaa(lp1045
g8
(g9
(I0
tS'b'
tRp1046
(I1
(tg12
I00
S'\xe4\xf72\xe4\xf72\x94?'
tbag8
(g9
(I0
tS'b'
tRp1047
(I1
(tg12
I00
S',\xa2\x04,\xa2\x04\x94?'
tbag8
(g9
(I0
tS'b'
tRp1048
(I1
(tg12
I00
S'\xfe\xe9\xae\xfd\xe9\xae\x95?'
tbag8
(g9
(I0
tS'b'
tRp1049
(I1
(tg12
I00
S'<<<<<<\x94?'
tbag8
(g9
(I0
tS'b'
tRp1050
(I1
(tg12
I00
S']p\xab\\p\xab\x94?'
tbag8
(g9
(I0
tS'b'
tRp1051
(I1
(tg12
I00
S'\x9cMa\x9cMa\x94?'
tbag8
(g9
(I0
tS'b'
tRp1052
(I1
(tg12
I00
S'\xfe\xe9\xae\xfd\xe9\xae\x95?'
tbag8
(g9
(I0
tS'b'
tRp1053
(I1
(tg12
I00
S'\x8d>R\x8d>R\x95?'
tbag8
(g9
(I0
tS'b'
tRp1054
(I1
(tg12
I00
S"vb'vb'\x96?"
tbag8
(g9
(I0
tS'b'
tRp1055
(I1
(tg12
I00
S'\x0f\x0f\x0f\x0f\x0f\x0f\x97?'
tbaa(lp1056
g8
(g9
(I0
tS'b'
tRp1057
(I1
(tg12
I00
S'\x8b(\x01\x8b(\x01\x93?'
tbag8
(g9
(I0
tS'b'
tRp1058
(I1
(tg12
I00
S'\x1c\x08\xcd\x1b\x08\xcd\x93?'
tbag8
(g9
(I0
tS'b'
tRp1059
(I1
(tg12
I00
S'k\xf4\x91j\xf4\x91\x92?'
tbag8
(g9
(I0
tS'b'
tRp1060
(I1
(tg12
I00
S'V.\xb8U.\xb8\x95?'
tbag8
(g9
(I0
tS'b'
tRp1061
(I1
(tg12
I00
S'\x8d>R\x8d>R\x95?'
tbag8
(g9
(I0
tS'b'
tRp1062
(I1
(tg12
I00
S'\xd5\xe8#\xd5\xe8#\x95?'
tbag8
(g9
(I0
tS'b'
tRp1063
(I1
(tg12
I00
S'm\n\xe3l\n\xe3\x94?'
tbag8
(g9
(I0
tS'b'
tRp1064
(I1
(tg12
I00
S'\x9e\xd8\x89\x9d\xd8\x89\x95?'
tbag8
(g9
(I0
tS'b'
tRp1065
(I1
(tg12
I00
S'U\xa3\x8fT\xa3\x8f\x94?'
tbag8
(g9
(I0
tS'b'
tRp1066
(I1
(tg12
I00
S'\xdd\xb5?\xdd\xb5?\x95?'
tbaa(lp1067
g8
(g9
(I0
tS'b'
tRp1068
(I1
(tg12
I00
S'5\xfaH5\xfaH\x95?'
tbag8
(g9
(I0
tS'b'
tRp1069
(I1
(tg12
I00
S'\xcb\x05\xb7\xca\x05\xb7\x92?'
tbag8
(g9
(I0
tS'b'
tRp1070
(I1
(tg12
I00
S'\x8b(\x01\x8b(\x01\x93?'
tbag8
(g9
(I0
tS'b'
tRp1071
(I1
(tg12
I00
S'V.\xb8U.\xb8\x95?'
tbag8
(g9
(I0
tS'b'
tRp1072
(I1
(tg12
I00
S'\xf4\x91j\xf4\x91j\x94?'
tbag8
(g9
(I0
tS'b'
tRp1073
(I1
(tg12
I00
S'\xe5\x82[\xe5\x82[\x95?'
tbag8
(g9
(I0
tS'b'
tRp1074
(I1
(tg12
I00
S'\xa4\x1a}\xa4\x1a}\x94?'
tbag8
(g9
(I0
tS'b'
tRp1075
(I1
(tg12
I00
S'%`\x11%`\x11\x95?'
tbag8
(g9
(I0
tS'b'
tRp1076
(I1
(tg12
I00
S'\xcf1Y\xcf1Y\x97?'
tbag8
(g9
(I0
tS'b'
tRp1077
(I1
(tg12
I00
S'V.\xb8U.\xb8\x95?'
tbaa(lp1078
g8
(g9
(I0
tS'b'
tRp1079
(I1
(tg12
I00
S'\xbc\xf6\xa7\xbb\xf6\xa7\x93?'
tbag8
(g9
(I0
tS'b'
tRp1080
(I1
(tg12
I00
S',\xa2\x04,\xa2\x04\x94?'
tbag8
(g9
(I0
tS'b'
tRp1081
(I1
(tg12
I00
S'\r\xf9\xbd\x0c\xf9\xbd\x94?'
tbag8
(g9
(I0
tS'b'
tRp1082
(I1
(tg12
I00
S'\x8c\xb3)\x8c\xb3)\x94?'
tbag8
(g9
(I0
tS'b'
tRp1083
(I1
(tg12
I00
S'\x9e\xd8\x89\x9d\xd8\x89\x95?'
tbag8
(g9
(I0
tS'b'
tRp1084
(I1
(tg12
I00
S'\x0cn\x95\x0bn\x95\x93?'
tbag8
(g9
(I0
tS'b'
tRp1085
(I1
(tg12
I00
S'\xa6\xa5\xa5\xa5\xa5\xa5\x95?'
tbag8
(g9
(I0
tS'b'
tRp1086
(I1
(tg12
I00
S'\x14;\xb1\x13;\xb1\x93?'
tbag8
(g9
(I0
tS'b'
tRp1087
(I1
(tg12
I00
S'\xe8\x98\xac\xe7\x98\xac\x97?'
tbag8
(g9
(I0
tS'b'
tRp1088
(I1
(tg12
I00
S'm\n\xe3l\n\xe3\x94?'
tbaa(lp1089
g8
(g9
(I0
tS'b'
tRp1090
(I1
(tg12
I00
S';\xb1\x13;\xb1\x13\x93?'
tbag8
(g9
(I0
tS'b'
tRp1091
(I1
(tg12
I00
S'tL\xd6sL\xd6\x93?'
tbag8
(g9
(I0
tS'b'
tRp1092
(I1
(tg12
I00
S',\xa2\x04,\xa2\x04\x94?'
tbag8
(g9
(I0
tS'b'
tRp1093
(I1
(tg12
I00
S'F\x94\x80E\x94\x80\x95?'
tbag8
(g9
(I0
tS'b'
tRp1094
(I1
(tg12
I00
S'G\x1f\xa9F\x1f\xa9\x96?'
tbag8
(g9
(I0
tS'b'
tRp1095
(I1
(tg12
I00
S'\x16Q\x02\x16Q\x02\x96?'
tbag8
(g9
(I0
tS'b'
tRp1096
(I1
(tg12
I00
S'u\xd7\xfet\xd7\xfe\x94?'
tbag8
(g9
(I0
tS'b'
tRp1097
(I1
(tg12
I00
S'Na\x9cMa\x9c\x95?'
tbag8
(g9
(I0
tS'b'
tRp1098
(I1
(tg12
I00
S'\x95\x0bn\x95\x0bn\x95?'
tbag8
(g9
(I0
tS'b'
tRp1099
(I1
(tg12
I00
S'G\x1f\xa9F\x1f\xa9\x96?'
tbaa(lp1100
g8
(g9
(I0
tS'b'
tRp1101
(I1
(tg12
I00
S'tL\xd6sL\xd6\x93?'
tbag8
(g9
(I0
tS'b'
tRp1102
(I1
(tg12
I00
S'\xb5\xb4\xb4\xb4\xb4\xb4\x94?'
tbag8
(g9
(I0
tS'b'
tRp1103
(I1
(tg12
I00
S'\xc5N\xec\xc4N\xec\x94?'
tbag8
(g9
(I0
tS'b'
tRp1104
(I1
(tg12
I00
S'\x9cMa\x9cMa\x94?'
tbag8
(g9
(I0
tS'b'
tRp1105
(I1
(tg12
I00
S'S\x18gS\x18g\x93?'
tbag8
(g9
(I0
tS'b'
tRp1106
(I1
(tg12
I00
S'&\xeb9&\xeb9\x96?'
tbag8
(g9
(I0
tS'b'
tRp1107
(I1
(tg12
I00
S'\x9fc\xb2\x9ec\xb2\x96?'
tbag8
(g9
(I0
tS'b'
tRp1108
(I1
(tg12
I00
S'\xaer\xc1\xadr\xc1\x95?'
tbag8
(g9
(I0
tS'b'
tRp1109
(I1
(tg12
I00
S']p\xab\\p\xab\x94?'
tbag8
(g9
(I0
tS'b'
tRp1110
(I1
(tg12
I00
S'\xcd\x1b\x08\xcd\x1b\x08\x95?'
tbaasS'start_time'
p1111
cdatetime
datetime
p1112
(S'\x07\xdf\x03\x14\x12\r\t\x0fA\xdd'
tRp1113
sS'state'
p1114
(dp1115
S'ndim'
p1116
S'20'
p1117
sS'test_all'
p1118
S'None'
p1119
sS'test_path'
p1120
S'None'
p1121
sS'nhid'
p1122
S'50'
p1123
sS'lremb'
p1124
S'1.0'
p1125
sS'seed'
p1126
S'7'
sS'simfn'
p1127
S'L1'
p1128
sS'valid_path'
p1129
S'None'
p1130
sS'nbatches'
p1131
S'10'
p1132
sS'lrparam'
p1133
S'1.0'
p1134
sS'decay'
p1135
S'0.9999'
p1136
sS'show_hinton_diagrams'
p1137
S'False'
p1138
sS'no_rescaling'
p1139
S'True'
p1140
sS'Nrel'
p1141
S'18'
p1142
sS'ranking_score_right'
p1143
g1138
sS'Nent'
p1144
S'40961'
p1145
sS'Nsyn'
p1146
S'40943'
p1147
sS'method'
p1148
S'ADADELTA'
p1149
sS'loss_margin'
p1150
S'1.0'
p1151
sS'C'
S'1.0'
p1152
sS'epsilon'
p1153
S'1e-06'
p1154
sS'use_db'
p1155
g1140
sS'max_lr'
p1156
S'None'
p1157
sS'l1_param_weight'
p1158
S'None'
p1159
sS'filtered'
p1160
g1138
sg2
g3
sS'totepochs'
p1161
S'100'
p1162
sS'l2_param_weight'
p1163
S'None'
p1164
sS'train_path'
p1165
S'data/wn/WN-train.pkl'
p1166
sS'op'
p1167
S'TransE'
p1168
ssS'average_costs_per_epoch'
p1169
(lp1170
(lp1171
g8
(g9
(I0
tS'b'
tRp1172
(I1
(tg12
I00
S'\xc4M\xb9\xa5\xbf\xed\xde@'
tbag8
(g9
(I0
tS'b'
tRp1173
(I1
(tg12
I00
S'"\xa4aNZ\x1e\xdd@'
tbag8
(g9
(I0
tS'b'
tRp1174
(I1
(tg12
I00
S'\xa9\x06\x07\x0eQ\xdc\xda@'
tbag8
(g9
(I0
tS'b'
tRp1175
(I1
(tg12
I00
S'r\xc3\xc2\xc7(\x9d\xd8@'
tbag8
(g9
(I0
tS'b'
tRp1176
(I1
(tg12
I00
S'\x8a\xab\xf0\x9dF\xed\xd5@'
tbag8
(g9
(I0
tS'b'
tRp1177
(I1
(tg12
I00
S'l\x7f\xa9d^\x85\xd4@'
tbag8
(g9
(I0
tS'b'
tRp1178
(I1
(tg12
I00
S'j\xb9(t\xe0W\xd3@'
tbag8
(g9
(I0
tS'b'
tRp1179
(I1
(tg12
I00
S'X\x07\xd6\xec$\xc6\xd1@'
tbag8
(g9
(I0
tS'b'
tRp1180
(I1
(tg12
I00
S'"c\xa8\x00\xca\xd9\xd0@'
tbag8
(g9
(I0
tS'b'
tRp1181
(I1
(tg12
I00
S'\x8c\x9a\xff\x02\x8ee\xcf@'
tbaa(lp1182
g8
(g9
(I0
tS'b'
tRp1183
(I1
(tg12
I00
S'G\x8b\xcd\x81l\x08\xc3@'
tbag8
(g9
(I0
tS'b'
tRp1184
(I1
(tg12
I00
S'rn\x19\xea!s\xc3@'
tbag8
(g9
(I0
tS'b'
tRp1185
(I1
(tg12
I00
S'N/3/\x94\x87\xc3@'
tbag8
(g9
(I0
tS'b'
tRp1186
(I1
(tg12
I00
S'2\x18Ch!<\xc3@'
tbag8
(g9
(I0
tS'b'
tRp1187
(I1
(tg12
I00
S'\xf8d\x84\xe4\x86,\xc3@'
tbag8
(g9
(I0
tS'b'
tRp1188
(I1
(tg12
I00
S'\x8c\x9d\xa1{!"\xc3@'
tbag8
(g9
(I0
tS'b'
tRp1189
(I1
(tg12
I00
S'\x0c\xa8\xc7\x86\x14\xb8\xc2@'
tbag8
(g9
(I0
tS'b'
tRp1190
(I1
(tg12
I00
S"\xa2\xda'd1\x08\xc2@"
tbag8
(g9
(I0
tS'b'
tRp1191
(I1
(tg12
I00
S'|l\xab]H|\xc1@'
tbag8
(g9
(I0
tS'b'
tRp1192
(I1
(tg12
I00
S'\xfd3\xfc\\e\x8a\xc0@'
tbaa(lp1193
g8
(g9
(I0
tS'b'
tRp1194
(I1
(tg12
I00
S'v\xa6\xe9i\xa2\xf5\xb5@'
tbag8
(g9
(I0
tS'b'
tRp1195
(I1
(tg12
I00
S'`\xb6\x89\xc9\xdd\x05\xb6@'
tbag8
(g9
(I0
tS'b'
tRp1196
(I1
(tg12
I00
S'8\x12\\\x93Y\xe1\xb6@'
tbag8
(g9
(I0
tS'b'
tRp1197
(I1
(tg12
I00
S'\x92\xbd\x81c\xe0\x8a\xb7@'
tbag8
(g9
(I0
tS'b'
tRp1198
(I1
(tg12
I00
S'\xba\xac\x1a\xe7b$\xb7@'
tbag8
(g9
(I0
tS'b'
tRp1199
(I1
(tg12
I00
S'D\xacg\x05dv\xb7@'
tbag8
(g9
(I0
tS'b'
tRp1200
(I1
(tg12
I00
S'\xb0\xcc\xbe\xaa\x1e]\xb7@'
tbag8
(g9
(I0
tS'b'
tRp1201
(I1
(tg12
I00
S'T\xa2ZQ\xd0}\xb7@'
tbag8
(g9
(I0
tS'b'
tRp1202
(I1
(tg12
I00
S'\x98G\x084\x0e#\xb7@'
tbag8
(g9
(I0
tS'b'
tRp1203
(I1
(tg12
I00
S'\xcd\xa4\x14s\xe6\x01\xb8@'
tbaa(lp1204
g8
(g9
(I0
tS'b'
tRp1205
(I1
(tg12
I00
S'(\xb3\x85A\x13\xbf\xae@'
tbag8
(g9
(I0
tS'b'
tRp1206
(I1
(tg12
I00
S'\xa6\x9d\x08: \xa0\xac@'
tbag8
(g9
(I0
tS'b'
tRp1207
(I1
(tg12
I00
S'\xc2\x10:\xafOU\xac@'
tbag8
(g9
(I0
tS'b'
tRp1208
(I1
(tg12
I00
S'U\xa7\xa6\x05\x08\xfb\xad@'
tbag8
(g9
(I0
tS'b'
tRp1209
(I1
(tg12
I00
S'\xe2L<\xea\x05N\xae@'
tbag8
(g9
(I0
tS'b'
tRp1210
(I1
(tg12
I00
S'h\xc0\x1d/\xc0\x98\xad@'
tbag8
(g9
(I0
tS'b'
tRp1211
(I1
(tg12
I00
S'/\xa7\xf7\x11Q\xe8\xae@'
tbag8
(g9
(I0
tS'b'
tRp1212
(I1
(tg12
I00
S'\xb4fWj\xac\xc5\xac@'
tbag8
(g9
(I0
tS'b'
tRp1213
(I1
(tg12
I00
S'66\xac\xae\xd8\xf1\xad@'
tbag8
(g9
(I0
tS'b'
tRp1214
(I1
(tg12
I00
S'\xe8\xff\xe8\xc6\x02\x9e\xac@'
tbaa(lp1215
g8
(g9
(I0
tS'b'
tRp1216
(I1
(tg12
I00
S'*\xa4\xedZ\xd0>\xa5@'
tbag8
(g9
(I0
tS'b'
tRp1217
(I1
(tg12
I00
S'8\xaa\xc8WIK\xa4@'
tbag8
(g9
(I0
tS'b'
tRp1218
(I1
(tg12
I00
S'\x1ek+\xfb\xf3\xa1\xa4@'
tbag8
(g9
(I0
tS'b'
tRp1219
(I1
(tg12
I00
S'::\xdb\x9eU\xf4\xa3@'
tbag8
(g9
(I0
tS'b'
tRp1220
(I1
(tg12
I00
S'\x08o\xf3W\xf3\xf8\xa3@'
tbag8
(g9
(I0
tS'b'
tRp1221
(I1
(tg12
I00
S'i\xb6vT\xddw\xa4@'
tbag8
(g9
(I0
tS'b'
tRp1222
(I1
(tg12
I00
S'2)\x0b\x82\xaa:\xa4@'
tbag8
(g9
(I0
tS'b'
tRp1223
(I1
(tg12
I00
S'p\xed\x15 \n\x0c\xa4@'
tbag8
(g9
(I0
tS'b'
tRp1224
(I1
(tg12
I00
S'\xde\x84\x81)P#\xa4@'
tbag8
(g9
(I0
tS'b'
tRp1225
(I1
(tg12
I00
S'\x81\r\xcc\x95\xee\xe8\xa3@'
tbaa(lp1226
g8
(g9
(I0
tS'b'
tRp1227
(I1
(tg12
I00
S'\x85\xbb\xb1}>\x06\x9c@'
tbag8
(g9
(I0
tS'b'
tRp1228
(I1
(tg12
I00
S'LX\xe7\xd8\xbe\xc7\x9b@'
tbag8
(g9
(I0
tS'b'
tRp1229
(I1
(tg12
I00
S'(\xd4\xfc\xd0\xf9\xe4\x9b@'
tbag8
(g9
(I0
tS'b'
tRp1230
(I1
(tg12
I00
S'L\x03I\x7f4\xd4\x9c@'
tbag8
(g9
(I0
tS'b'
tRp1231
(I1
(tg12
I00
S'r\xd3\x00\x1a}\xd3\x9c@'
tbag8
(g9
(I0
tS'b'
tRp1232
(I1
(tg12
I00
S'\xb40\x85\xfcx\xe3\x9d@'
tbag8
(g9
(I0
tS'b'
tRp1233
(I1
(tg12
I00
S'b\xe9\x82\xdf\xc5\xa9\x9e@'
tbag8
(g9
(I0
tS'b'
tRp1234
(I1
(tg12
I00
S'\x02\x0e-\xe4,U\x9f@'
tbag8
(g9
(I0
tS'b'
tRp1235
(I1
(tg12
I00
S'2D\rX\xc9\x1c\x9d@'
tbag8
(g9
(I0
tS'b'
tRp1236
(I1
(tg12
I00
S'|Gk\x01q\xac\x9d@'
tbaa(lp1237
g8
(g9
(I0
tS'b'
tRp1238
(I1
(tg12
I00
S'\xcc\xa7\x89\xbb\xb4e\x96@'
tbag8
(g9
(I0
tS'b'
tRp1239
(I1
(tg12
I00
S'J\x00\x08M3\xe1\x95@'
tbag8
(g9
(I0
tS'b'
tRp1240
(I1
(tg12
I00
S'n\x02T\x8f\x18\xcf\x95@'
tbag8
(g9
(I0
tS'b'
tRp1241
(I1
(tg12
I00
S'\x0c\x96\x8d\xd2&k\x97@'
tbag8
(g9
(I0
tS'b'
tRp1242
(I1
(tg12
I00
S'\x18v\xa3\x85GJ\x98@'
tbag8
(g9
(I0
tS'b'
tRp1243
(I1
(tg12
I00
S'\x16a\x89\xe9\xe24\x98@'
tbag8
(g9
(I0
tS'b'
tRp1244
(I1
(tg12
I00
S'\xd7hm+\x04\x19\x99@'
tbag8
(g9
(I0
tS'b'
tRp1245
(I1
(tg12
I00
S':\xd3\xc0O\xf3/\x98@'
tbag8
(g9
(I0
tS'b'
tRp1246
(I1
(tg12
I00
S'\xfc\xe0\x84\xa7g\xfe\x97@'
tbag8
(g9
(I0
tS'b'
tRp1247
(I1
(tg12
I00
S'\x91{IS\x15 \x98@'
tbaa(lp1248
g8
(g9
(I0
tS'b'
tRp1249
(I1
(tg12
I00
S'6\xa3\xde\xf7\xef^\x92@'
tbag8
(g9
(I0
tS'b'
tRp1250
(I1
(tg12
I00
S'L\xf8\x99c@@\x93@'
tbag8
(g9
(I0
tS'b'
tRp1251
(I1
(tg12
I00
S'\x8d\xfd/XA\x87\x93@'
tbag8
(g9
(I0
tS'b'
tRp1252
(I1
(tg12
I00
S'\xac@1|\x11\xd7\x92@'
tbag8
(g9
(I0
tS'b'
tRp1253
(I1
(tg12
I00
S'@\xfa9C\xb3\xb6\x94@'
tbag8
(g9
(I0
tS'b'
tRp1254
(I1
(tg12
I00
S'\xb8RMI\xb3\xf9\x94@'
tbag8
(g9
(I0
tS'b'
tRp1255
(I1
(tg12
I00
S'\xc8\xc4\x94\x0f\x1f\xe6\x94@'
tbag8
(g9
(I0
tS'b'
tRp1256
(I1
(tg12
I00
S',\xd9\x13\x92\xbd\xa5\x94@'
tbag8
(g9
(I0
tS'b'
tRp1257
(I1
(tg12
I00
S'\x1a\x01\xa5\xa4\x8c\x93\x93@'
tbag8
(g9
(I0
tS'b'
tRp1258
(I1
(tg12
I00
S';I6\xcf}\x89\x94@'
tbaa(lp1259
g8
(g9
(I0
tS'b'
tRp1260
(I1
(tg12
I00
S'\x02\x12\x85\x9cp\x17\x8f@'
tbag8
(g9
(I0
tS'b'
tRp1261
(I1
(tg12
I00
S'\xf6:LX\xd6\xa2\x8e@'
tbag8
(g9
(I0
tS'b'
tRp1262
(I1
(tg12
I00
S'J\xde\xfcI\x15o\x8f@'
tbag8
(g9
(I0
tS'b'
tRp1263
(I1
(tg12
I00
S'\x1f\x00\xcf\xc7\xaaw\x90@'
tbag8
(g9
(I0
tS'b'
tRp1264
(I1
(tg12
I00
S'\x8f\x98N\xfa\x90N\x91@'
tbag8
(g9
(I0
tS'b'
tRp1265
(I1
(tg12
I00
S'\xd7\xeeJ\x1c\xdb\xd3\x90@'
tbag8
(g9
(I0
tS'b'
tRp1266
(I1
(tg12
I00
S'aR\xba\x88\xb6U\x92@'
tbag8
(g9
(I0
tS'b'
tRp1267
(I1
(tg12
I00
S'\xa4n:e\x0b\x9c\x91@'
tbag8
(g9
(I0
tS'b'
tRp1268
(I1
(tg12
I00
S'\x02\x1eU\xa0\t\x8e\x92@'
tbag8
(g9
(I0
tS'b'
tRp1269
(I1
(tg12
I00
S'>\x9c\x97\xd4\x1b&\x92@'
tbaa(lp1270
g8
(g9
(I0
tS'b'
tRp1271
(I1
(tg12
I00
S'\xb0yN~-\x95\x8a@'
tbag8
(g9
(I0
tS'b'
tRp1272
(I1
(tg12
I00
S'H\x91\xa1\xd6\xe5\x08\x8b@'
tbag8
(g9
(I0
tS'b'
tRp1273
(I1
(tg12
I00
S'D\xfc\x13r\x935\x8d@'
tbag8
(g9
(I0
tS'b'
tRp1274
(I1
(tg12
I00
S'P\xdc\xc0\x95\xce\x95\x8d@'
tbag8
(g9
(I0
tS'b'
tRp1275
(I1
(tg12
I00
S'\x1aH>\x92\xa8\xcb\x8b@'
tbag8
(g9
(I0
tS'b'
tRp1276
(I1
(tg12
I00
S'2\xee\xe9C-X\x8d@'
tbag8
(g9
(I0
tS'b'
tRp1277
(I1
(tg12
I00
S'\x9a\xfar\xab\xf6\xb7\x8e@'
tbag8
(g9
(I0
tS'b'
tRp1278
(I1
(tg12
I00
S'\x99\x95\xb7\xaac!\x90@'
tbag8
(g9
(I0
tS'b'
tRp1279
(I1
(tg12
I00
S'\x11\xa2X\rJ\xbd\x8e@'
tbag8
(g9
(I0
tS'b'
tRp1280
(I1
(tg12
I00
S'\nJg\xa2\xcb}\x8f@'
tbaa(lp1281
g8
(g9
(I0
tS'b'
tRp1282
(I1
(tg12
I00
S'\xd0\x15V\xed)@\x89@'
tbag8
(g9
(I0
tS'b'
tRp1283
(I1
(tg12
I00
S'`\x90MH@\x97\x8a@'
tbag8
(g9
(I0
tS'b'
tRp1284
(I1
(tg12
I00
S'\x88\x14\x8f\xcd\x8ej\x89@'
tbag8
(g9
(I0
tS'b'
tRp1285
(I1
(tg12
I00
S'\x1a\x907(\x04>\x89@'
tbag8
(g9
(I0
tS'b'
tRp1286
(I1
(tg12
I00
S'\xb8\xe9\x97:|\x05\x8a@'
tbag8
(g9
(I0
tS'b'
tRp1287
(I1
(tg12
I00
S'33&S\xe5\x8d\x8c@'
tbag8
(g9
(I0
tS'b'
tRp1288
(I1
(tg12
I00
S'&8&-\xe0j\x8c@'
tbag8
(g9
(I0
tS'b'
tRp1289
(I1
(tg12
I00
S'\x9a\xf8t\x11\xf4|\x8b@'
tbag8
(g9
(I0
tS'b'
tRp1290
(I1
(tg12
I00
S'\xb7\xf0Z\x0b\xaf\xcd\x8b@'
tbag8
(g9
(I0
tS'b'
tRp1291
(I1
(tg12
I00
S'\x80\xeeL\xda\x03\xf2\x8c@'
tbaa(lp1292
g8
(g9
(I0
tS'b'
tRp1293
(I1
(tg12
I00
S'$>G\x05M\xa3\x86@'
tbag8
(g9
(I0
tS'b'
tRp1294
(I1
(tg12
I00
S'\xeam\x98\x17a\xe7\x87@'
tbag8
(g9
(I0
tS'b'
tRp1295
(I1
(tg12
I00
S'{\xff\x82tu/\x88@'
tbag8
(g9
(I0
tS'b'
tRp1296
(I1
(tg12
I00
S'\x8c^jbb\x9c\x88@'
tbag8
(g9
(I0
tS'b'
tRp1297
(I1
(tg12
I00
S'\xe0j\x19f$\x94\x88@'
tbag8
(g9
(I0
tS'b'
tRp1298
(I1
(tg12
I00
S'\x02#"`\x15R\x89@'
tbag8
(g9
(I0
tS'b'
tRp1299
(I1
(tg12
I00
S'\xd6NZ/\xa7Q\x8a@'
tbag8
(g9
(I0
tS'b'
tRp1300
(I1
(tg12
I00
S' \xe53z\x9d\xa7\x89@'
tbag8
(g9
(I0
tS'b'
tRp1301
(I1
(tg12
I00
S'\xf0\xc8\x8c\xb5O\xb8\x8a@'
tbag8
(g9
(I0
tS'b'
tRp1302
(I1
(tg12
I00
S'\xbb\xc5i\x06\xba\xd6\x8c@'
tbaa(lp1303
g8
(g9
(I0
tS'b'
tRp1304
(I1
(tg12
I00
S'#\x07kw{\xdb\x84@'
tbag8
(g9
(I0
tS'b'
tRp1305
(I1
(tg12
I00
S'HR\xcc=\xbfF\x86@'
tbag8
(g9
(I0
tS'b'
tRp1306
(I1
(tg12
I00
S'<\xd6\xdb\xabtp\x86@'
tbag8
(g9
(I0
tS'b'
tRp1307
(I1
(tg12
I00
S'\x00v\xeb\xffM;\x86@'
tbag8
(g9
(I0
tS'b'
tRp1308
(I1
(tg12
I00
S'\xb4mz\x1a\x13<\x87@'
tbag8
(g9
(I0
tS'b'
tRp1309
(I1
(tg12
I00
S'\xf8j\xc4\xa4\x14~\x87@'
tbag8
(g9
(I0
tS'b'
tRp1310
(I1
(tg12
I00
S'\xf4l\x9fpH\xd0\x86@'
tbag8
(g9
(I0
tS'b'
tRp1311
(I1
(tg12
I00
S"\x14\xc3p=\x98'\x89@"
tbag8
(g9
(I0
tS'b'
tRp1312
(I1
(tg12
I00
S'\xd54^X\xb5\x95\x87@'
tbag8
(g9
(I0
tS'b'
tRp1313
(I1
(tg12
I00
S'>\xe8<\x18\x95\x12\x89@'
tbaa(lp1314
g8
(g9
(I0
tS'b'
tRp1315
(I1
(tg12
I00
S'\x174~\xd7\x13\xc1\x84@'
tbag8
(g9
(I0
tS'b'
tRp1316
(I1
(tg12
I00
S'\x83\xd9U\xed\xf8\xf2\x83@'
tbag8
(g9
(I0
tS'b'
tRp1317
(I1
(tg12
I00
S'e\x03\xb8\x84\xbc\xec\x83@'
tbag8
(g9
(I0
tS'b'
tRp1318
(I1
(tg12
I00
S'\x98V\xfbW\x8c\xa6\x85@'
tbag8
(g9
(I0
tS'b'
tRp1319
(I1
(tg12
I00
S'81U\xea\x03\xaa\x83@'
tbag8
(g9
(I0
tS'b'
tRp1320
(I1
(tg12
I00
S'\xe0\x80&n\xc7\x18\x86@'
tbag8
(g9
(I0
tS'b'
tRp1321
(I1
(tg12
I00
S'V\x9e\x98\x15]\x1d\x86@'
tbag8
(g9
(I0
tS'b'
tRp1322
(I1
(tg12
I00
S'\x86\xd5\x97&\x04\xe0\x86@'
tbag8
(g9
(I0
tS'b'
tRp1323
(I1
(tg12
I00
S']o\xb6\xe5\xd7\xac\x86@'
tbag8
(g9
(I0
tS'b'
tRp1324
(I1
(tg12
I00
S'\xa4\xa7\xff\x80\xc4\x1a\x87@'
tbaa(lp1325
g8
(g9
(I0
tS'b'
tRp1326
(I1
(tg12
I00
S'\xc4a\x96 \xd7h\x82@'
tbag8
(g9
(I0
tS'b'
tRp1327
(I1
(tg12
I00
S'6\xc8\x08A\x08-\x83@'
tbag8
(g9
(I0
tS'b'
tRp1328
(I1
(tg12
I00
S"\x85\x1a'\xec\xea\xcd\x82@"
tbag8
(g9
(I0
tS'b'
tRp1329
(I1
(tg12
I00
S'\x13\xf1g\x10\x8e\x86\x83@'
tbag8
(g9
(I0
tS'b'
tRp1330
(I1
(tg12
I00
S'C&M\xa2\xb1l\x84@'
tbag8
(g9
(I0
tS'b'
tRp1331
(I1
(tg12
I00
S'\x9ab\x86\xde\x93\xa0\x85@'
tbag8
(g9
(I0
tS'b'
tRp1332
(I1
(tg12
I00
S'P/e\x15*\xaf\x84@'
tbag8
(g9
(I0
tS'b'
tRp1333
(I1
(tg12
I00
S'B\xd8\x14\xd2v\x1b\x85@'
tbag8
(g9
(I0
tS'b'
tRp1334
(I1
(tg12
I00
S'\xf4\xdd\x86I\xd6D\x86@'
tbag8
(g9
(I0
tS'b'
tRp1335
(I1
(tg12
I00
S'\x164\xcf\xdf\xd1\x19\x85@'
tbaa(lp1336
g8
(g9
(I0
tS'b'
tRp1337
(I1
(tg12
I00
S's\x88N\x821\xd4\x80@'
tbag8
(g9
(I0
tS'b'
tRp1338
(I1
(tg12
I00
S'\x1c*\xb1\tOQ\x82@'
tbag8
(g9
(I0
tS'b'
tRp1339
(I1
(tg12
I00
S'3\xa4\xd37\x9fd\x83@'
tbag8
(g9
(I0
tS'b'
tRp1340
(I1
(tg12
I00
S'[\x041\x98\x96=\x83@'
tbag8
(g9
(I0
tS'b'
tRp1341
(I1
(tg12
I00
S'\x8e"c\xc9\xa1\xec\x82@'
tbag8
(g9
(I0
tS'b'
tRp1342
(I1
(tg12
I00
S':q\x1fq\xa1\xd5\x82@'
tbag8
(g9
(I0
tS'b'
tRp1343
(I1
(tg12
I00
S'\xaeui?R\x13\x84@'
tbag8
(g9
(I0
tS'b'
tRp1344
(I1
(tg12
I00
S'S\x94+\xb1\xdfN\x83@'
tbag8
(g9
(I0
tS'b'
tRp1345
(I1
(tg12
I00
S'8\xacV\x187*\x84@'
tbag8
(g9
(I0
tS'b'
tRp1346
(I1
(tg12
I00
S'^\xc7\xae/Yr\x84@'
tbaa(lp1347
g8
(g9
(I0
tS'b'
tRp1348
(I1
(tg12
I00
S'9\xd8]U\x1f\xd9\x81@'
tbag8
(g9
(I0
tS'b'
tRp1349
(I1
(tg12
I00
S'\xa4\x98/-\x1a\xf0\x81@'
tbag8
(g9
(I0
tS'b'
tRp1350
(I1
(tg12
I00
S'\x1a\x95\xe9\xa5W\x83\x80@'
tbag8
(g9
(I0
tS'b'
tRp1351
(I1
(tg12
I00
S'\xe2\xe2\xe44\xf2\xc8\x81@'
tbag8
(g9
(I0
tS'b'
tRp1352
(I1
(tg12
I00
S'k\xa2\xbf\xdf\xc1L\x82@'
tbag8
(g9
(I0
tS'b'
tRp1353
(I1
(tg12
I00
S'\x86-\xb0\x81L\xac\x83@'
tbag8
(g9
(I0
tS'b'
tRp1354
(I1
(tg12
I00
S'\x0e9 \xbe\x08\xad\x82@'
tbag8
(g9
(I0
tS'b'
tRp1355
(I1
(tg12
I00
S'V&;k\xca\x17\x82@'
tbag8
(g9
(I0
tS'b'
tRp1356
(I1
(tg12
I00
S'\xe4\xd6\xcd\xc4Y\x99\x82@'
tbag8
(g9
(I0
tS'b'
tRp1357
(I1
(tg12
I00
S'8\x16\x01\xe6\x90!\x83@'
tbaa(lp1358
g8
(g9
(I0
tS'b'
tRp1359
(I1
(tg12
I00
S'P\x1b?X\xfd&\x7f@'
tbag8
(g9
(I0
tS'b'
tRp1360
(I1
(tg12
I00
S'wyR\xc4D \x80@'
tbag8
(g9
(I0
tS'b'
tRp1361
(I1
(tg12
I00
S'\xb8\x165\x17@+\x80@'
tbag8
(g9
(I0
tS'b'
tRp1362
(I1
(tg12
I00
S'\xfe8\xcf9\x8a\xaa\x7f@'
tbag8
(g9
(I0
tS'b'
tRp1363
(I1
(tg12
I00
S'P1\xca\xd4\xee\xb6\x81@'
tbag8
(g9
(I0
tS'b'
tRp1364
(I1
(tg12
I00
S"\xe3\xdd\xf6\xdc'\x81\x81@"
tbag8
(g9
(I0
tS'b'
tRp1365
(I1
(tg12
I00
S'<o\xf1\x16b\x9b\x81@'
tbag8
(g9
(I0
tS'b'
tRp1366
(I1
(tg12
I00
S'2\x01\xfaN\xa7\x7f\x82@'
tbag8
(g9
(I0
tS'b'
tRp1367
(I1
(tg12
I00
S'd\xf1\xcc",\xa3\x82@'
tbag8
(g9
(I0
tS'b'
tRp1368
(I1
(tg12
I00
S'A\xbb\x7f\x04\x19F\x82@'
tbaa(lp1369
g8
(g9
(I0
tS'b'
tRp1370
(I1
(tg12
I00
S'\xd3\xc5\x9a\xf9\xa3*\x80@'
tbag8
(g9
(I0
tS'b'
tRp1371
(I1
(tg12
I00
S'h&b9\xbb+~@'
tbag8
(g9
(I0
tS'b'
tRp1372
(I1
(tg12
I00
S'\x926\x8e\xf4_H\x7f@'
tbag8
(g9
(I0
tS'b'
tRp1373
(I1
(tg12
I00
S'\xf0\xb0\xe1<\xd9\xaf}@'
tbag8
(g9
(I0
tS'b'
tRp1374
(I1
(tg12
I00
S'\xe8\xeb2\x08\x0e\xa5\x80@'
tbag8
(g9
(I0
tS'b'
tRp1375
(I1
(tg12
I00
S'Kc*\x8fk7\x80@'
tbag8
(g9
(I0
tS'b'
tRp1376
(I1
(tg12
I00
S'\xbc\xb1W\x8d0\xd0\x80@'
tbag8
(g9
(I0
tS'b'
tRp1377
(I1
(tg12
I00
S'\x10\xa7C\xc8*\xed\x81@'
tbag8
(g9
(I0
tS'b'
tRp1378
(I1
(tg12
I00
S'\x93Y\xea\xa2\x8b.\x82@'
tbag8
(g9
(I0
tS'b'
tRp1379
(I1
(tg12
I00
S'N |\xc37\x04\x81@'
tbaa(lp1380
g8
(g9
(I0
tS'b'
tRp1381
(I1
(tg12
I00
S'\x07J\xbd\x04\xd6\xa1{@'
tbag8
(g9
(I0
tS'b'
tRp1382
(I1
(tg12
I00
S'H\xfa/y\xe5o~@'
tbag8
(g9
(I0
tS'b'
tRp1383
(I1
(tg12
I00
S'Y\xcb\xacL\xac\x0c\x7f@'
tbag8
(g9
(I0
tS'b'
tRp1384
(I1
(tg12
I00
S'\x11\xc0\xc7H\x1ft\x7f@'
tbag8
(g9
(I0
tS'b'
tRp1385
(I1
(tg12
I00
S'v\xc1&\x1d\x91\x16\x7f@'
tbag8
(g9
(I0
tS'b'
tRp1386
(I1
(tg12
I00
S'\xfcd\x17\xf6\x0e\x11\x80@'
tbag8
(g9
(I0
tS'b'
tRp1387
(I1
(tg12
I00
S'\x95,"\xf3 >\x7f@'
tbag8
(g9
(I0
tS'b'
tRp1388
(I1
(tg12
I00
S'\\\xcd\xe2\x84\x84\xf9~@'
tbag8
(g9
(I0
tS'b'
tRp1389
(I1
(tg12
I00
S'\xccq\xd6\x19\xe8,\x80@'
tbag8
(g9
(I0
tS'b'
tRp1390
(I1
(tg12
I00
S'd\x18\x9d\x8e\xb6\xf5\x80@'
tbaa(lp1391
g8
(g9
(I0
tS'b'
tRp1392
(I1
(tg12
I00
S'\xae\x88\xd2\xbf\x0ff{@'
tbag8
(g9
(I0
tS'b'
tRp1393
(I1
(tg12
I00
S'r\x1f\xfe\xd1hf|@'
tbag8
(g9
(I0
tS'b'
tRp1394
(I1
(tg12
I00
S'Gu3\xfc\x04\xc1|@'
tbag8
(g9
(I0
tS'b'
tRp1395
(I1
(tg12
I00
S'\xea\xf5\xb7v\xa8\x11\x7f@'
tbag8
(g9
(I0
tS'b'
tRp1396
(I1
(tg12
I00
S'\xd2\xef\xca\x1d\x1a\xcd}@'
tbag8
(g9
(I0
tS'b'
tRp1397
(I1
(tg12
I00
S'B\xe5\xcf\xff\xc6\xed|@'
tbag8
(g9
(I0
tS'b'
tRp1398
(I1
(tg12
I00
S'G\xae\x13%\xf7 \x80@'
tbag8
(g9
(I0
tS'b'
tRp1399
(I1
(tg12
I00
S'\xe0\x0c\xaa\t:\xb8~@'
tbag8
(g9
(I0
tS'b'
tRp1400
(I1
(tg12
I00
S'\xb4&1\x9c\x8d\x93\x7f@'
tbag8
(g9
(I0
tS'b'
tRp1401
(I1
(tg12
I00
S'\x08\xfdm\xa7d\x9d\x7f@'
tbaa(lp1402
g8
(g9
(I0
tS'b'
tRp1403
(I1
(tg12
I00
S'\x00rq\\K\x8by@'
tbag8
(g9
(I0
tS'b'
tRp1404
(I1
(tg12
I00
S"\x18\xca'\x88\xcc\xbey@"
tbag8
(g9
(I0
tS'b'
tRp1405
(I1
(tg12
I00
S'i\xf8\xc4\xb7\xcd\x9c~@'
tbag8
(g9
(I0
tS'b'
tRp1406
(I1
(tg12
I00
S'\x07\xd2f3\x15\xc2|@'
tbag8
(g9
(I0
tS'b'
tRp1407
(I1
(tg12
I00
S'b(|?)+z@'
tbag8
(g9
(I0
tS'b'
tRp1408
(I1
(tg12
I00
S'\xdc\x0c\x18\xbd3\xec}@'
tbag8
(g9
(I0
tS'b'
tRp1409
(I1
(tg12
I00
S'L\xca\xf9AV\xcc\x7f@'
tbag8
(g9
(I0
tS'b'
tRp1410
(I1
(tg12
I00
S'\x91\x01x\xe1\xc1R~@'
tbag8
(g9
(I0
tS'b'
tRp1411
(I1
(tg12
I00
S'\xb8t\x8e\xb9\xae\xa8~@'
tbag8
(g9
(I0
tS'b'
tRp1412
(I1
(tg12
I00
S'\xf2\xb8\x97\xcb\xcbP~@'
tbaa(lp1413
g8
(g9
(I0
tS'b'
tRp1414
(I1
(tg12
I00
S'\xaa\xbc\xdfO\xcb\xbfw@'
tbag8
(g9
(I0
tS'b'
tRp1415
(I1
(tg12
I00
S'\x8c=\xe7\xfc\xe4\xbe|@'
tbag8
(g9
(I0
tS'b'
tRp1416
(I1
(tg12
I00
S'\x987\xc7pt\x7fz@'
tbag8
(g9
(I0
tS'b'
tRp1417
(I1
(tg12
I00
S'\xc2\x88\x10p\x8dS{@'
tbag8
(g9
(I0
tS'b'
tRp1418
(I1
(tg12
I00
S'\xf6\x16[\xc9\x1e+|@'
tbag8
(g9
(I0
tS'b'
tRp1419
(I1
(tg12
I00
S"\x9eq'a\x83]|@"
tbag8
(g9
(I0
tS'b'
tRp1420
(I1
(tg12
I00
S'K\xaa\xb2l\x06\x8c}@'
tbag8
(g9
(I0
tS'b'
tRp1421
(I1
(tg12
I00
S'R=D\xf6\xb5\xe6}@'
tbag8
(g9
(I0
tS'b'
tRp1422
(I1
(tg12
I00
S'r\xe0\xd9\x14lg\x80@'
tbag8
(g9
(I0
tS'b'
tRp1423
(I1
(tg12
I00
S'nBrM\x96\xa9~@'
tbaa(lp1424
g8
(g9
(I0
tS'b'
tRp1425
(I1
(tg12
I00
S'\xd5\x9a9\xe6\x90\xf6z@'
tbag8
(g9
(I0
tS'b'
tRp1426
(I1
(tg12
I00
S'-\xd7J\xde\xc0\xdax@'
tbag8
(g9
(I0
tS'b'
tRp1427
(I1
(tg12
I00
S'\t\xbb+\xec1y{@'
tbag8
(g9
(I0
tS'b'
tRp1428
(I1
(tg12
I00
S'L\xdfj\xb6\x13ry@'
tbag8
(g9
(I0
tS'b'
tRp1429
(I1
(tg12
I00
S'\x1f\x11AO\xa5\xb8{@'
tbag8
(g9
(I0
tS'b'
tRp1430
(I1
(tg12
I00
S'\xea\x82\x7f;B<{@'
tbag8
(g9
(I0
tS'b'
tRp1431
(I1
(tg12
I00
S'\xe6\x06\xf4\xb1\xea~{@'
tbag8
(g9
(I0
tS'b'
tRp1432
(I1
(tg12
I00
S'{\x84U\x1eS\x81}@'
tbag8
(g9
(I0
tS'b'
tRp1433
(I1
(tg12
I00
S'\xf71\xfd\xcd\x11\xf9|@'
tbag8
(g9
(I0
tS'b'
tRp1434
(I1
(tg12
I00
S'\x04w\xc5\x86/Y|@'
tbaa(lp1435
g8
(g9
(I0
tS'b'
tRp1436
(I1
(tg12
I00
S'\xea\x88\xcf\x0b\xd6Py@'
tbag8
(g9
(I0
tS'b'
tRp1437
(I1
(tg12
I00
S'\x14T;\x8f)0y@'
tbag8
(g9
(I0
tS'b'
tRp1438
(I1
(tg12
I00
S'S\x82\xa7\xcf\xa1\x91y@'
tbag8
(g9
(I0
tS'b'
tRp1439
(I1
(tg12
I00
S'~K\xc51\xb0\xc8z@'
tbag8
(g9
(I0
tS'b'
tRp1440
(I1
(tg12
I00
S'RF\xf3 \x8bdz@'
tbag8
(g9
(I0
tS'b'
tRp1441
(I1
(tg12
I00
S'k?@\x85\xf2Sy@'
tbag8
(g9
(I0
tS'b'
tRp1442
(I1
(tg12
I00
S'>O/\x88\x8a\x10z@'
tbag8
(g9
(I0
tS'b'
tRp1443
(I1
(tg12
I00
S'\x0cg\x8ey\x81\xccz@'
tbag8
(g9
(I0
tS'b'
tRp1444
(I1
(tg12
I00
S'"S\xe1\xcc\xb3\xc1{@'
tbag8
(g9
(I0
tS'b'
tRp1445
(I1
(tg12
I00
S'\xe6\xa7Y\x83\xb4\x12|@'
tbaa(lp1446
g8
(g9
(I0
tS'b'
tRp1447
(I1
(tg12
I00
S'\xa8e\x94\x8a\x19\xd8x@'
tbag8
(g9
(I0
tS'b'
tRp1448
(I1
(tg12
I00
S'\x92\x9d\xdb2\xa5\xebw@'
tbag8
(g9
(I0
tS'b'
tRp1449
(I1
(tg12
I00
S'f7\x16\xd6\x9b\x89v@'
tbag8
(g9
(I0
tS'b'
tRp1450
(I1
(tg12
I00
S'u\xc2z\xbe}\xa4z@'
tbag8
(g9
(I0
tS'b'
tRp1451
(I1
(tg12
I00
S'\xef|\xe41\x17\x17z@'
tbag8
(g9
(I0
tS'b'
tRp1452
(I1
(tg12
I00
S'\x9e5\xae5!\xa4w@'
tbag8
(g9
(I0
tS'b'
tRp1453
(I1
(tg12
I00
S'N:cC\xb9\x08|@'
tbag8
(g9
(I0
tS'b'
tRp1454
(I1
(tg12
I00
S'\xac\x8f\xcc,\r\x95y@'
tbag8
(g9
(I0
tS'b'
tRp1455
(I1
(tg12
I00
S'\xf7\x92\t\xb7tK|@'
tbag8
(g9
(I0
tS'b'
tRp1456
(I1
(tg12
I00
S'RR\x88\xc0\x84=}@'
tbaa(lp1457
g8
(g9
(I0
tS'b'
tRp1458
(I1
(tg12
I00
S'R\xbdG\x18\xa4av@'
tbag8
(g9
(I0
tS'b'
tRp1459
(I1
(tg12
I00
S'\xa2?x\xb5\x97\xadw@'
tbag8
(g9
(I0
tS'b'
tRp1460
(I1
(tg12
I00
S'RaL\xfej\xc8x@'
tbag8
(g9
(I0
tS'b'
tRp1461
(I1
(tg12
I00
S'$\xee}{\xb7\x97w@'
tbag8
(g9
(I0
tS'b'
tRp1462
(I1
(tg12
I00
S'\x10\xda6\xc9\xfe\xa4y@'
tbag8
(g9
(I0
tS'b'
tRp1463
(I1
(tg12
I00
S'\x94uL\xa7\xc9\x90x@'
tbag8
(g9
(I0
tS'b'
tRp1464
(I1
(tg12
I00
S'r\xfd\x1fr\xcb\x8f{@'
tbag8
(g9
(I0
tS'b'
tRp1465
(I1
(tg12
I00
S'vU]Y\xe1\x8dz@'
tbag8
(g9
(I0
tS'b'
tRp1466
(I1
(tg12
I00
S'\x0bj\x92+\xbb\xa7z@'
tbag8
(g9
(I0
tS'b'
tRp1467
(I1
(tg12
I00
S'\xf4\xf8\xb8\x8e\x17\xafy@'
tbaa(lp1468
g8
(g9
(I0
tS'b'
tRp1469
(I1
(tg12
I00
S'R\xc6c\xd1\r\xa1u@'
tbag8
(g9
(I0
tS'b'
tRp1470
(I1
(tg12
I00
S'\xea/\xbf4\x83mw@'
tbag8
(g9
(I0
tS'b'
tRp1471
(I1
(tg12
I00
S'\x92\x141\x84\xdb\xc3t@'
tbag8
(g9
(I0
tS'b'
tRp1472
(I1
(tg12
I00
S'\xba\x12\x0e\x0f\x80\x0cx@'
tbag8
(g9
(I0
tS'b'
tRp1473
(I1
(tg12
I00
S'_\xb9[\xbc\x8f\xd8x@'
tbag8
(g9
(I0
tS'b'
tRp1474
(I1
(tg12
I00
S'\n\xb0\xea;\x8e\xd9w@'
tbag8
(g9
(I0
tS'b'
tRp1475
(I1
(tg12
I00
S'\x18\xe6^\xbf\rty@'
tbag8
(g9
(I0
tS'b'
tRp1476
(I1
(tg12
I00
S'\\\x8f\xd2\x93\xc5\xd6y@'
tbag8
(g9
(I0
tS'b'
tRp1477
(I1
(tg12
I00
S'\xba\xd9\xcd\xbaaIy@'
tbag8
(g9
(I0
tS'b'
tRp1478
(I1
(tg12
I00
S'\x94a\xda?\xf1Cy@'
tbaa(lp1479
g8
(g9
(I0
tS'b'
tRp1480
(I1
(tg12
I00
S'Nc\xd1\x82\xf9_v@'
tbag8
(g9
(I0
tS'b'
tRp1481
(I1
(tg12
I00
S'c:(\xfee\x1bv@'
tbag8
(g9
(I0
tS'b'
tRp1482
(I1
(tg12
I00
S'\x94\xb6\xff\xed\x071v@'
tbag8
(g9
(I0
tS'b'
tRp1483
(I1
(tg12
I00
S'\xfa4\xc5\x19\x00\xa6u@'
tbag8
(g9
(I0
tS'b'
tRp1484
(I1
(tg12
I00
S'6\xf5\x8c\x980\x14x@'
tbag8
(g9
(I0
tS'b'
tRp1485
(I1
(tg12
I00
S'\xb8zE[\xe5%x@'
tbag8
(g9
(I0
tS'b'
tRp1486
(I1
(tg12
I00
S'n\xf3\xec\xd4\x10\xb0y@'
tbag8
(g9
(I0
tS'b'
tRp1487
(I1
(tg12
I00
S':O\xe6q=\xa4x@'
tbag8
(g9
(I0
tS'b'
tRp1488
(I1
(tg12
I00
S'\x02\x11\xe0lj\x97z@'
tbag8
(g9
(I0
tS'b'
tRp1489
(I1
(tg12
I00
S'&y\xb5E\xe3\xa1y@'
tbaa(lp1490
g8
(g9
(I0
tS'b'
tRp1491
(I1
(tg12
I00
S'(k\xc7$\xd6lu@'
tbag8
(g9
(I0
tS'b'
tRp1492
(I1
(tg12
I00
S'P)"\xf0N\x84v@'
tbag8
(g9
(I0
tS'b'
tRp1493
(I1
(tg12
I00
S'\x1e]i\x8b\x85\x12v@'
tbag8
(g9
(I0
tS'b'
tRp1494
(I1
(tg12
I00
S'0\x01\xbc\xea+\xd7w@'
tbag8
(g9
(I0
tS'b'
tRp1495
(I1
(tg12
I00
S'Z\x9cz\x85\x08\x8fv@'
tbag8
(g9
(I0
tS'b'
tRp1496
(I1
(tg12
I00
S'>E\x0b/P\xa6v@'
tbag8
(g9
(I0
tS'b'
tRp1497
(I1
(tg12
I00
S'\xaaX\x02zY\x89x@'
tbag8
(g9
(I0
tS'b'
tRp1498
(I1
(tg12
I00
S'\xae=D\xe60\x1fz@'
tbag8
(g9
(I0
tS'b'
tRp1499
(I1
(tg12
I00
S'h\xd2\x8e\xd0\x03!z@'
tbag8
(g9
(I0
tS'b'
tRp1500
(I1
(tg12
I00
S'\x91`<\xac\xf8\xeax@'
tbaa(lp1501
g8
(g9
(I0
tS'b'
tRp1502
(I1
(tg12
I00
S'n\r\\]*it@'
tbag8
(g9
(I0
tS'b'
tRp1503
(I1
(tg12
I00
S'$,\xf6\n\xfcdt@'
tbag8
(g9
(I0
tS'b'
tRp1504
(I1
(tg12
I00
S"\x0e'\xc9\xc9\x1fFw@"
tbag8
(g9
(I0
tS'b'
tRp1505
(I1
(tg12
I00
S'e\x1e\x0f\x92OYu@'
tbag8
(g9
(I0
tS'b'
tRp1506
(I1
(tg12
I00
S'\xbeP\x83\x8e*\x14v@'
tbag8
(g9
(I0
tS'b'
tRp1507
(I1
(tg12
I00
S'\x94\xc5p\xd1n\xbfv@'
tbag8
(g9
(I0
tS'b'
tRp1508
(I1
(tg12
I00
S'\x03\xa7\xb8n\xd6\xc7w@'
tbag8
(g9
(I0
tS'b'
tRp1509
(I1
(tg12
I00
S'\xf2\x08\x10\xc4\x83;w@'
tbag8
(g9
(I0
tS'b'
tRp1510
(I1
(tg12
I00
S'\x94Y\x11\x16\xce\xa9v@'
tbag8
(g9
(I0
tS'b'
tRp1511
(I1
(tg12
I00
S'(\x1a\x162\x7f;y@'
tbaa(lp1512
g8
(g9
(I0
tS'b'
tRp1513
(I1
(tg12
I00
S'\xb8\xaf3\xed\xd9\xb0s@'
tbag8
(g9
(I0
tS'b'
tRp1514
(I1
(tg12
I00
S'\x94\xad\xe4\x9b\xd84s@'
tbag8
(g9
(I0
tS'b'
tRp1515
(I1
(tg12
I00
S'13@\xbc\x96Xt@'
tbag8
(g9
(I0
tS'b'
tRp1516
(I1
(tg12
I00
S':=\xbe\xbc\xc6\x8du@'
tbag8
(g9
(I0
tS'b'
tRp1517
(I1
(tg12
I00
S'w\xddffL\xfdu@'
tbag8
(g9
(I0
tS'b'
tRp1518
(I1
(tg12
I00
S'@%\xe3p\x01\x0cw@'
tbag8
(g9
(I0
tS'b'
tRp1519
(I1
(tg12
I00
S'\xe6\x94\x82\xdb\xb0\xcav@'
tbag8
(g9
(I0
tS'b'
tRp1520
(I1
(tg12
I00
S'\xd2\x0cF\xa4\xb6\xe0u@'
tbag8
(g9
(I0
tS'b'
tRp1521
(I1
(tg12
I00
S'!\x95\xdd+\x98\x13w@'
tbag8
(g9
(I0
tS'b'
tRp1522
(I1
(tg12
I00
S'\xa3#\xf2\x15\xd9cv@'
tbaa(lp1523
g8
(g9
(I0
tS'b'
tRp1524
(I1
(tg12
I00
S'\x92\xed\x13\x14\xae\xecr@'
tbag8
(g9
(I0
tS'b'
tRp1525
(I1
(tg12
I00
S'\xd6Ge\x90\xca^u@'
tbag8
(g9
(I0
tS'b'
tRp1526
(I1
(tg12
I00
S'\x9c\xa5\xc9\x15\x89\xdev@'
tbag8
(g9
(I0
tS'b'
tRp1527
(I1
(tg12
I00
S'\x00\x99\xc0\x8c8\x07v@'
tbag8
(g9
(I0
tS'b'
tRp1528
(I1
(tg12
I00
S'\xb1\x1f\xeb\x8d\xbf\xd5t@'
tbag8
(g9
(I0
tS'b'
tRp1529
(I1
(tg12
I00
S'\\\x99OU\x1bgv@'
tbag8
(g9
(I0
tS'b'
tRp1530
(I1
(tg12
I00
S'\xa6\xd7P\xe2\x9b8u@'
tbag8
(g9
(I0
tS'b'
tRp1531
(I1
(tg12
I00
S'l\x16N~|sw@'
tbag8
(g9
(I0
tS'b'
tRp1532
(I1
(tg12
I00
S'm\xee\x9cu\xe4\xd3u@'
tbag8
(g9
(I0
tS'b'
tRp1533
(I1
(tg12
I00
S'\x101\x85\x92\x12\xedw@'
tbaa(lp1534
g8
(g9
(I0
tS'b'
tRp1535
(I1
(tg12
I00
S'S\xd4r\xc2\x11\xfdq@'
tbag8
(g9
(I0
tS'b'
tRp1536
(I1
(tg12
I00
S'j8\xb3\xa4R\xfar@'
tbag8
(g9
(I0
tS'b'
tRp1537
(I1
(tg12
I00
S'\xff33\x05\xdb\xc0t@'
tbag8
(g9
(I0
tS'b'
tRp1538
(I1
(tg12
I00
S'%\xa8>DRrt@'
tbag8
(g9
(I0
tS'b'
tRp1539
(I1
(tg12
I00
S'>I\xcc\x8d\xc1\xb2t@'
tbag8
(g9
(I0
tS'b'
tRp1540
(I1
(tg12
I00
S'\x7f\xaf\xe4*\xf9\xa0t@'
tbag8
(g9
(I0
tS'b'
tRp1541
(I1
(tg12
I00
S'\xbbh\x1an\xc3\xe6u@'
tbag8
(g9
(I0
tS'b'
tRp1542
(I1
(tg12
I00
S'*\xc22)>\x95w@'
tbag8
(g9
(I0
tS'b'
tRp1543
(I1
(tg12
I00
S'/\xf5\x1bv<\x98v@'
tbag8
(g9
(I0
tS'b'
tRp1544
(I1
(tg12
I00
S'\xfb\xcd\xc0O\xb0\x8au@'
tbaa(lp1545
g8
(g9
(I0
tS'b'
tRp1546
(I1
(tg12
I00
S'w\x0e\xc9\xe1\xd1\xcfr@'
tbag8
(g9
(I0
tS'b'
tRp1547
(I1
(tg12
I00
S'\xe0\x13\x1d]e\xd5r@'
tbag8
(g9
(I0
tS'b'
tRp1548
(I1
(tg12
I00
S'B\x90\x84{\xa1rr@'
tbag8
(g9
(I0
tS'b'
tRp1549
(I1
(tg12
I00
S'\x1et\xf8>\xd4\xd7t@'
tbag8
(g9
(I0
tS'b'
tRp1550
(I1
(tg12
I00
S'\x0eF\xeb+`3u@'
tbag8
(g9
(I0
tS'b'
tRp1551
(I1
(tg12
I00
S'$k\xac7+\xd8t@'
tbag8
(g9
(I0
tS'b'
tRp1552
(I1
(tg12
I00
S'\xf7,P>\\\xebv@'
tbag8
(g9
(I0
tS'b'
tRp1553
(I1
(tg12
I00
S'6\x85iS\xb03u@'
tbag8
(g9
(I0
tS'b'
tRp1554
(I1
(tg12
I00
S'p/\xabG\xb3\xb6v@'
tbag8
(g9
(I0
tS'b'
tRp1555
(I1
(tg12
I00
S'{\xf8b\x895\xd1u@'
tbaa(lp1556
g8
(g9
(I0
tS'b'
tRp1557
(I1
(tg12
I00
S'\xe8\xba\xab\x06\xc8\\r@'
tbag8
(g9
(I0
tS'b'
tRp1558
(I1
(tg12
I00
S'\xc0\xd5v_F\x15s@'
tbag8
(g9
(I0
tS'b'
tRp1559
(I1
(tg12
I00
S'\xfe\xf9\xa0\xf72\x89v@'
tbag8
(g9
(I0
tS'b'
tRp1560
(I1
(tg12
I00
S'r\xd5\xab\x8cY\x1du@'
tbag8
(g9
(I0
tS'b'
tRp1561
(I1
(tg12
I00
S'hU\xad\xa5w\xe6u@'
tbag8
(g9
(I0
tS'b'
tRp1562
(I1
(tg12
I00
S'J\xcb\xf6\xc3\xca\x80t@'
tbag8
(g9
(I0
tS'b'
tRp1563
(I1
(tg12
I00
S'^\x9b\xbd\xbaFIt@'
tbag8
(g9
(I0
tS'b'
tRp1564
(I1
(tg12
I00
S'\xa3\x9c\xa7\x19u x@'
tbag8
(g9
(I0
tS'b'
tRp1565
(I1
(tg12
I00
S'\x1a\xc4]\x1b\x19\xd8v@'
tbag8
(g9
(I0
tS'b'
tRp1566
(I1
(tg12
I00
S'dO\xe3\xd1\x85\x10w@'
tbaa(lp1567
g8
(g9
(I0
tS'b'
tRp1568
(I1
(tg12
I00
S',\xa0?\x0c\xc5\x8es@'
tbag8
(g9
(I0
tS'b'
tRp1569
(I1
(tg12
I00
S'\x0c\x9d\xeb\xa5yxu@'
tbag8
(g9
(I0
tS'b'
tRp1570
(I1
(tg12
I00
S'\xdaT\xbaC\x91\xcas@'
tbag8
(g9
(I0
tS'b'
tRp1571
(I1
(tg12
I00
S'\x06(\x80\xee\xd5\xaas@'
tbag8
(g9
(I0
tS'b'
tRp1572
(I1
(tg12
I00
S'\x86\x15\xc5\x03\x8b7v@'
tbag8
(g9
(I0
tS'b'
tRp1573
(I1
(tg12
I00
S'\xd8\xc8Y\xcb\xbdeu@'
tbag8
(g9
(I0
tS'b'
tRp1574
(I1
(tg12
I00
S'\x90?\xc5Ky)t@'
tbag8
(g9
(I0
tS'b'
tRp1575
(I1
(tg12
I00
S'<\xd4E&m\x9cv@'
tbag8
(g9
(I0
tS'b'
tRp1576
(I1
(tg12
I00
S'*P\n<\xceev@'
tbag8
(g9
(I0
tS'b'
tRp1577
(I1
(tg12
I00
S'\xea\t\xc5.\x1e\xd8v@'
tbaa(lp1578
g8
(g9
(I0
tS'b'
tRp1579
(I1
(tg12
I00
S':N\x90\n5\xccp@'
tbag8
(g9
(I0
tS'b'
tRp1580
(I1
(tg12
I00
S'\x07\xeb~\xa4Kfr@'
tbag8
(g9
(I0
tS'b'
tRp1581
(I1
(tg12
I00
S'Y3\x19\x94"\xdbs@'
tbag8
(g9
(I0
tS'b'
tRp1582
(I1
(tg12
I00
S'\xa1m\xf7\x83\xe4\x18s@'
tbag8
(g9
(I0
tS'b'
tRp1583
(I1
(tg12
I00
S'\rG\xec\xaf\xee\xabs@'
tbag8
(g9
(I0
tS'b'
tRp1584
(I1
(tg12
I00
S'\xee\x87\x89\xf7(pt@'
tbag8
(g9
(I0
tS'b'
tRp1585
(I1
(tg12
I00
S']i\x9bz9\x9at@'
tbag8
(g9
(I0
tS'b'
tRp1586
(I1
(tg12
I00
S'C\x0epT\xc3\x97t@'
tbag8
(g9
(I0
tS'b'
tRp1587
(I1
(tg12
I00
S'\x99\xcf\xbf\x01\x8bFv@'
tbag8
(g9
(I0
tS'b'
tRp1588
(I1
(tg12
I00
S'RB]5\x94\xbfs@'
tbaa(lp1589
g8
(g9
(I0
tS'b'
tRp1590
(I1
(tg12
I00
S'\x00\xfd\xf7^g\xc1q@'
tbag8
(g9
(I0
tS'b'
tRp1591
(I1
(tg12
I00
S'\xceC(\xc0\x9b s@'
tbag8
(g9
(I0
tS'b'
tRp1592
(I1
(tg12
I00
S'd\x18\x19x\xb6\xc5r@'
tbag8
(g9
(I0
tS'b'
tRp1593
(I1
(tg12
I00
S'\xb8~/\xf0\xa8Us@'
tbag8
(g9
(I0
tS'b'
tRp1594
(I1
(tg12
I00
S'\xda\xf8\x87\x7f\xee\xaet@'
tbag8
(g9
(I0
tS'b'
tRp1595
(I1
(tg12
I00
S'\xdc~\xf1fZ\xd9s@'
tbag8
(g9
(I0
tS'b'
tRp1596
(I1
(tg12
I00
S'\x1e\xadh\xde\xbb#v@'
tbag8
(g9
(I0
tS'b'
tRp1597
(I1
(tg12
I00
S'\xc6\x91\x94\xa44\xe5t@'
tbag8
(g9
(I0
tS'b'
tRp1598
(I1
(tg12
I00
S'4\xefQ\xbdW\xafu@'
tbag8
(g9
(I0
tS'b'
tRp1599
(I1
(tg12
I00
S'\xb6\xf2\x07,S"s@'
tbaa(lp1600
g8
(g9
(I0
tS'b'
tRp1601
(I1
(tg12
I00
S'\xec\xc9\x82)\x13\x8eq@'
tbag8
(g9
(I0
tS'b'
tRp1602
(I1
(tg12
I00
S'\xfbu(\xc0\xbe\x8fs@'
tbag8
(g9
(I0
tS'b'
tRp1603
(I1
(tg12
I00
S'\xe64A[iEr@'
tbag8
(g9
(I0
tS'b'
tRp1604
(I1
(tg12
I00
S'\x13]j\xebX\xa1q@'
tbag8
(g9
(I0
tS'b'
tRp1605
(I1
(tg12
I00
S'\x8a&M\xcb\xb4\xeft@'
tbag8
(g9
(I0
tS'b'
tRp1606
(I1
(tg12
I00
S'\x03!\xc6\xbf\xac\xc1q@'
tbag8
(g9
(I0
tS'b'
tRp1607
(I1
(tg12
I00
S'\x92\xfb\xfc[/\xecs@'
tbag8
(g9
(I0
tS'b'
tRp1608
(I1
(tg12
I00
S'\xfe\xbaD\xae\xd4\xd5s@'
tbag8
(g9
(I0
tS'b'
tRp1609
(I1
(tg12
I00
S'zi\xf4\xd0\x1f\xb4t@'
tbag8
(g9
(I0
tS'b'
tRp1610
(I1
(tg12
I00
S"\xc4\x17\xa5'(\xc0u@"
tbaa(lp1611
g8
(g9
(I0
tS'b'
tRp1612
(I1
(tg12
I00
S'\xe0ItL\x13lr@'
tbag8
(g9
(I0
tS'b'
tRp1613
(I1
(tg12
I00
S'\xf4\xa1\x9d\xfc\xe4\x1er@'
tbag8
(g9
(I0
tS'b'
tRp1614
(I1
(tg12
I00
S'm\xd9\x86\x8c\xc8ip@'
tbag8
(g9
(I0
tS'b'
tRp1615
(I1
(tg12
I00
S'\x86\n\x9dumvr@'
tbag8
(g9
(I0
tS'b'
tRp1616
(I1
(tg12
I00
S'\x16\xd4#\xba\xb1@s@'
tbag8
(g9
(I0
tS'b'
tRp1617
(I1
(tg12
I00
S'\xb40}i\x97_r@'
tbag8
(g9
(I0
tS'b'
tRp1618
(I1
(tg12
I00
S'c-\x80\xb6\x90.t@'
tbag8
(g9
(I0
tS'b'
tRp1619
(I1
(tg12
I00
S'f?I\xd2\x80\xc6r@'
tbag8
(g9
(I0
tS'b'
tRp1620
(I1
(tg12
I00
S'\xf7\xef\x08(Z\xbcr@'
tbag8
(g9
(I0
tS'b'
tRp1621
(I1
(tg12
I00
S'\xc0\x92\xb0\x03z\xd5t@'
tbaa(lp1622
g8
(g9
(I0
tS'b'
tRp1623
(I1
(tg12
I00
S'\xc1\xado\x91\\\x8ar@'
tbag8
(g9
(I0
tS'b'
tRp1624
(I1
(tg12
I00
S'\xf5\x9f\xa3\x85\xf2\xacp@'
tbag8
(g9
(I0
tS'b'
tRp1625
(I1
(tg12
I00
S'&\xb1\x98Pipt@'
tbag8
(g9
(I0
tS'b'
tRp1626
(I1
(tg12
I00
S'x\xb1\xaa\x1e~\xc6p@'
tbag8
(g9
(I0
tS'b'
tRp1627
(I1
(tg12
I00
S'2\x11\xc7\x15\x99bs@'
tbag8
(g9
(I0
tS'b'
tRp1628
(I1
(tg12
I00
S'%\xfdK\xce*\xc2s@'
tbag8
(g9
(I0
tS'b'
tRp1629
(I1
(tg12
I00
S'\x0e\x80\xad\xb3\xecPr@'
tbag8
(g9
(I0
tS'b'
tRp1630
(I1
(tg12
I00
S'pk\xe8\xeb\xd6%r@'
tbag8
(g9
(I0
tS'b'
tRp1631
(I1
(tg12
I00
S'o}\n\x8fK\x7fu@'
tbag8
(g9
(I0
tS'b'
tRp1632
(I1
(tg12
I00
S'{\xb5\x00\xee\xc6\xa4r@'
tbaa(lp1633
g8
(g9
(I0
tS'b'
tRp1634
(I1
(tg12
I00
S'\xbe\xef^\xb3\xba\x98q@'
tbag8
(g9
(I0
tS'b'
tRp1635
(I1
(tg12
I00
S'r\xbb\xd6\xb0U\xe6p@'
tbag8
(g9
(I0
tS'b'
tRp1636
(I1
(tg12
I00
S"\x80UQA'\xc9r@"
tbag8
(g9
(I0
tS'b'
tRp1637
(I1
(tg12
I00
S'^\xa9\x91\xdfD\xd5s@'
tbag8
(g9
(I0
tS'b'
tRp1638
(I1
(tg12
I00
S'\xe4\xd1\xd0\xf0\x0f\xbas@'
tbag8
(g9
(I0
tS'b'
tRp1639
(I1
(tg12
I00
S'\xcc\x0c\xe1\xff\xec\xc0r@'
tbag8
(g9
(I0
tS'b'
tRp1640
(I1
(tg12
I00
S'p\xa6\xc4\x8c1\xefs@'
tbag8
(g9
(I0
tS'b'
tRp1641
(I1
(tg12
I00
S'\x9ap\xc3\x932\x07s@'
tbag8
(g9
(I0
tS'b'
tRp1642
(I1
(tg12
I00
S'\xcf^\xfc\x9drGt@'
tbag8
(g9
(I0
tS'b'
tRp1643
(I1
(tg12
I00
S'\xa2\xfbc\xa2\xf5Vs@'
tbaa(lp1644
g8
(g9
(I0
tS'b'
tRp1645
(I1
(tg12
I00
S'\xa3\xf9U^\x84mp@'
tbag8
(g9
(I0
tS'b'
tRp1646
(I1
(tg12
I00
S'\xe5\x13\xf7?\xb9\xb5p@'
tbag8
(g9
(I0
tS'b'
tRp1647
(I1
(tg12
I00
S'\x80\xb9P5\xca\ts@'
tbag8
(g9
(I0
tS'b'
tRp1648
(I1
(tg12
I00
S'{s\x98\x83{\x88q@'
tbag8
(g9
(I0
tS'b'
tRp1649
(I1
(tg12
I00
S'(Y\xa0\xe0o^s@'
tbag8
(g9
(I0
tS'b'
tRp1650
(I1
(tg12
I00
S'\xad\xd3\x0c\xe1\xe8\x02t@'
tbag8
(g9
(I0
tS'b'
tRp1651
(I1
(tg12
I00
S'g\xe4I7\xefWs@'
tbag8
(g9
(I0
tS'b'
tRp1652
(I1
(tg12
I00
S'\x16\xf5x\xec\x15\x92s@'
tbag8
(g9
(I0
tS'b'
tRp1653
(I1
(tg12
I00
S'\x9a\x04il\x81 s@'
tbag8
(g9
(I0
tS'b'
tRp1654
(I1
(tg12
I00
S'\x12\x1e\x1d@\xf8\x11t@'
tbaa(lp1655
g8
(g9
(I0
tS'b'
tRp1656
(I1
(tg12
I00
S'\xdb\xc2)o%\xd3o@'
tbag8
(g9
(I0
tS'b'
tRp1657
(I1
(tg12
I00
S'\t$Z/1mp@'
tbag8
(g9
(I0
tS'b'
tRp1658
(I1
(tg12
I00
S'8\xe9\xdd\x8d\x8cGq@'
tbag8
(g9
(I0
tS'b'
tRp1659
(I1
(tg12
I00
S'\xc4\x89=\xf6\x93\xf9p@'
tbag8
(g9
(I0
tS'b'
tRp1660
(I1
(tg12
I00
S'\xe7\x9f\x1c\xd6\x14\xcep@'
tbag8
(g9
(I0
tS'b'
tRp1661
(I1
(tg12
I00
S'<\xd1\xb2\xcf\xe6tq@'
tbag8
(g9
(I0
tS'b'
tRp1662
(I1
(tg12
I00
S'\xe7[\nt\x10Ar@'
tbag8
(g9
(I0
tS'b'
tRp1663
(I1
(tg12
I00
S'\xfc\xdd\xa0\xf2\xed1s@'
tbag8
(g9
(I0
tS'b'
tRp1664
(I1
(tg12
I00
S'\xcc\xef:\xa8\xf9]s@'
tbag8
(g9
(I0
tS'b'
tRp1665
(I1
(tg12
I00
S'\xb6\x00\xee\xce\xfa\xa9s@'
tbaa(lp1666
g8
(g9
(I0
tS'b'
tRp1667
(I1
(tg12
I00
S'\xe7\xdb\x1f\x83\xd3\x9bq@'
tbag8
(g9
(I0
tS'b'
tRp1668
(I1
(tg12
I00
S'<\xadk\xc1\xcfJp@'
tbag8
(g9
(I0
tS'b'
tRp1669
(I1
(tg12
I00
S'F\x86e\xac\xee\x17q@'
tbag8
(g9
(I0
tS'b'
tRp1670
(I1
(tg12
I00
S'!\xc4\xcdO\x94\xecq@'
tbag8
(g9
(I0
tS'b'
tRp1671
(I1
(tg12
I00
S'\\\x8b\xe4\x1d\xebjr@'
tbag8
(g9
(I0
tS'b'
tRp1672
(I1
(tg12
I00
S'\xbe\x17\xfdFD\x04r@'
tbag8
(g9
(I0
tS'b'
tRp1673
(I1
(tg12
I00
S'\xcfY\xac\x8fs\xfdr@'
tbag8
(g9
(I0
tS'b'
tRp1674
(I1
(tg12
I00
S'\x84m~\xe7\x8d\xe9p@'
tbag8
(g9
(I0
tS'b'
tRp1675
(I1
(tg12
I00
S'\xcfj\x0f\xa9\x0cLr@'
tbag8
(g9
(I0
tS'b'
tRp1676
(I1
(tg12
I00
S'v1(}S\x83s@'
tbaa(lp1677
g8
(g9
(I0
tS'b'
tRp1678
(I1
(tg12
I00
S'\xda4\x18\xd9\xedcn@'
tbag8
(g9
(I0
tS'b'
tRp1679
(I1
(tg12
I00
S'`\x18\x96\xf9\xcagp@'
tbag8
(g9
(I0
tS'b'
tRp1680
(I1
(tg12
I00
S'\xbf0}3\xa5\xa2q@'
tbag8
(g9
(I0
tS'b'
tRp1681
(I1
(tg12
I00
S'\x07\xc5\xa5\x1e\xfe\xecq@'
tbag8
(g9
(I0
tS'b'
tRp1682
(I1
(tg12
I00
S'\n\x8f\xdf\x91\x1d\xc5r@'
tbag8
(g9
(I0
tS'b'
tRp1683
(I1
(tg12
I00
S'EbX\xc4\xa9Nq@'
tbag8
(g9
(I0
tS'b'
tRp1684
(I1
(tg12
I00
S'\xa9\x1b\xa8*\xfa=s@'
tbag8
(g9
(I0
tS'b'
tRp1685
(I1
(tg12
I00
S'V\x0eq\xa7 \x15r@'
tbag8
(g9
(I0
tS'b'
tRp1686
(I1
(tg12
I00
S'\x95\xc1\xfc\xc4\xd1\xd9r@'
tbag8
(g9
(I0
tS'b'
tRp1687
(I1
(tg12
I00
S'\xc4\xd5\x82\x0f\xb6%t@'
tbaa(lp1688
g8
(g9
(I0
tS'b'
tRp1689
(I1
(tg12
I00
S"\xbe'V\x98\xb8\xc7p@"
tbag8
(g9
(I0
tS'b'
tRp1690
(I1
(tg12
I00
S'&\x02\r\xd0\xa4\x02p@'
tbag8
(g9
(I0
tS'b'
tRp1691
(I1
(tg12
I00
S'\x98\x89[{\xfb\x81p@'
tbag8
(g9
(I0
tS'b'
tRp1692
(I1
(tg12
I00
S'\x92\xe2\x87H\xe0\x9fr@'
tbag8
(g9
(I0
tS'b'
tRp1693
(I1
(tg12
I00
S'\xc2Ly\x81:\x1cr@'
tbag8
(g9
(I0
tS'b'
tRp1694
(I1
(tg12
I00
S"'\xfb\x03]G\x0cs@"
tbag8
(g9
(I0
tS'b'
tRp1695
(I1
(tg12
I00
S'\xe2s\xd9\x1fw\x1br@'
tbag8
(g9
(I0
tS'b'
tRp1696
(I1
(tg12
I00
S'\xfc3\xcc4K-r@'
tbag8
(g9
(I0
tS'b'
tRp1697
(I1
(tg12
I00
S'\xb1\x81\xb7e\xb5\x1er@'
tbag8
(g9
(I0
tS'b'
tRp1698
(I1
(tg12
I00
S'\x8c\x87]\x90\xd3\x85r@'
tbaa(lp1699
g8
(g9
(I0
tS'b'
tRp1700
(I1
(tg12
I00
S'l\xc7\xd5\xf0]\x8ap@'
tbag8
(g9
(I0
tS'b'
tRp1701
(I1
(tg12
I00
S'\x88\xc3\xd3\xd9g\x15q@'
tbag8
(g9
(I0
tS'b'
tRp1702
(I1
(tg12
I00
S'\xee\xaaYI:lp@'
tbag8
(g9
(I0
tS'b'
tRp1703
(I1
(tg12
I00
S'h\x86\xab\x94,\xf3q@'
tbag8
(g9
(I0
tS'b'
tRp1704
(I1
(tg12
I00
S'`\xfc\x07\xb5\x86Jr@'
tbag8
(g9
(I0
tS'b'
tRp1705
(I1
(tg12
I00
S'n\xf2\x0cH\xd8dr@'
tbag8
(g9
(I0
tS'b'
tRp1706
(I1
(tg12
I00
S'\x10\x90\x92\xb2\x19\x14r@'
tbag8
(g9
(I0
tS'b'
tRp1707
(I1
(tg12
I00
S'\x98n\xe4\x98X\x10r@'
tbag8
(g9
(I0
tS'b'
tRp1708
(I1
(tg12
I00
S"\xc0\xc1\xed\n>'q@"
tbag8
(g9
(I0
tS'b'
tRp1709
(I1
(tg12
I00
S'\xbc\x8d\xb0\xc9\xc1\xa5q@'
tbaa(lp1710
g8
(g9
(I0
tS'b'
tRp1711
(I1
(tg12
I00
S'X\x89\xb9V\xb8@p@'
tbag8
(g9
(I0
tS'b'
tRp1712
(I1
(tg12
I00
S'\xed\xa83\x9b\x85\xb3p@'
tbag8
(g9
(I0
tS'b'
tRp1713
(I1
(tg12
I00
S'\x03\xdf\x16\x82\xb5\xe5p@'
tbag8
(g9
(I0
tS'b'
tRp1714
(I1
(tg12
I00
S'\x8a5\x1d\x16~\xa1q@'
tbag8
(g9
(I0
tS'b'
tRp1715
(I1
(tg12
I00
S',\x10\xdbC\xc2\xeap@'
tbag8
(g9
(I0
tS'b'
tRp1716
(I1
(tg12
I00
S't\xb8\x90\xf9\xe6Jp@'
tbag8
(g9
(I0
tS'b'
tRp1717
(I1
(tg12
I00
S'\x98\x8b\x17R:\x1ar@'
tbag8
(g9
(I0
tS'b'
tRp1718
(I1
(tg12
I00
S'\xe2L\x05\xd4\xc3Ar@'
tbag8
(g9
(I0
tS'b'
tRp1719
(I1
(tg12
I00
S'_\xc5B\xb3C\x0br@'
tbag8
(g9
(I0
tS'b'
tRp1720
(I1
(tg12
I00
S'\xfc`B:\x03\x12r@'
tbaa(lp1721
g8
(g9
(I0
tS'b'
tRp1722
(I1
(tg12
I00
S'\xba{\x82Mw\x8bq@'
tbag8
(g9
(I0
tS'b'
tRp1723
(I1
(tg12
I00
S'\xcc\x15\x8d\xb9\x0cqn@'
tbag8
(g9
(I0
tS'b'
tRp1724
(I1
(tg12
I00
S'\x1b\xea\xef\xeb,\x93p@'
tbag8
(g9
(I0
tS'b'
tRp1725
(I1
(tg12
I00
S'\x96\xa7]\xb4y\x8fp@'
tbag8
(g9
(I0
tS'b'
tRp1726
(I1
(tg12
I00
S'\xba\xba\x81N\xc2\x85q@'
tbag8
(g9
(I0
tS'b'
tRp1727
(I1
(tg12
I00
S'\xda\x1c\x8b\xa9\x11\xbbr@'
tbag8
(g9
(I0
tS'b'
tRp1728
(I1
(tg12
I00
S'(\x97L$\x03Xr@'
tbag8
(g9
(I0
tS'b'
tRp1729
(I1
(tg12
I00
S'\x1c\x8d\xa50e\xf1p@'
tbag8
(g9
(I0
tS'b'
tRp1730
(I1
(tg12
I00
S'\xea\x07!EA>r@'
tbag8
(g9
(I0
tS'b'
tRp1731
(I1
(tg12
I00
S'\xa8j\x10\x86\x16\xd9q@'
tbaa(lp1732
g8
(g9
(I0
tS'b'
tRp1733
(I1
(tg12
I00
S'\xd8K\x86m\xd8\x86n@'
tbag8
(g9
(I0
tS'b'
tRp1734
(I1
(tg12
I00
S'\xb27\x8a\xf2\t\xb8p@'
tbag8
(g9
(I0
tS'b'
tRp1735
(I1
(tg12
I00
S'\xd3\xa6\x19"\x94\x8dq@'
tbag8
(g9
(I0
tS'b'
tRp1736
(I1
(tg12
I00
S'4q\xd2*\x1e\x7fq@'
tbag8
(g9
(I0
tS'b'
tRp1737
(I1
(tg12
I00
S':\xf2\x8cq\xb2\x88q@'
tbag8
(g9
(I0
tS'b'
tRp1738
(I1
(tg12
I00
S'\x84&\xea\x1f\x89\xcbp@'
tbag8
(g9
(I0
tS'b'
tRp1739
(I1
(tg12
I00
S'\x10\xb4\xfb\xe0\xb8\x11q@'
tbag8
(g9
(I0
tS'b'
tRp1740
(I1
(tg12
I00
S'\xfa\xa8W\x8fk;q@'
tbag8
(g9
(I0
tS'b'
tRp1741
(I1
(tg12
I00
S'\xdc\xa0&,f3q@'
tbag8
(g9
(I0
tS'b'
tRp1742
(I1
(tg12
I00
S'z\x8c\xdd\xde\xfc\x84r@'
tbaa(lp1743
g8
(g9
(I0
tS'b'
tRp1744
(I1
(tg12
I00
S'C\xbdQ}9\x13p@'
tbag8
(g9
(I0
tS'b'
tRp1745
(I1
(tg12
I00
S'\x18\x9d\n\x1a\x8b\x06q@'
tbag8
(g9
(I0
tS'b'
tRp1746
(I1
(tg12
I00
S"\x8c\x19^Yu'p@"
tbag8
(g9
(I0
tS'b'
tRp1747
(I1
(tg12
I00
S'\xf4\xf4\xbf\x06\xd1ap@'
tbag8
(g9
(I0
tS'b'
tRp1748
(I1
(tg12
I00
S'\xf8\x80\xfd\x14\x91\xddp@'
tbag8
(g9
(I0
tS'b'
tRp1749
(I1
(tg12
I00
S'rJ>\xbchlo@'
tbag8
(g9
(I0
tS'b'
tRp1750
(I1
(tg12
I00
S'\xe9\xc6\x8e\x169Vq@'
tbag8
(g9
(I0
tS'b'
tRp1751
(I1
(tg12
I00
S'\xea\x00\xd4\x19\x00\xb0p@'
tbag8
(g9
(I0
tS'b'
tRp1752
(I1
(tg12
I00
S'*\x03\xa7i\x06Ar@'
tbag8
(g9
(I0
tS'b'
tRp1753
(I1
(tg12
I00
S'U*\xab*\xdaIq@'
tbaa(lp1754
g8
(g9
(I0
tS'b'
tRp1755
(I1
(tg12
I00
S'\xee_P?X)o@'
tbag8
(g9
(I0
tS'b'
tRp1756
(I1
(tg12
I00
S'6\xc7\x81\x16\x9e4m@'
tbag8
(g9
(I0
tS'b'
tRp1757
(I1
(tg12
I00
S'\xbd 8\xbcP\xb4n@'
tbag8
(g9
(I0
tS'b'
tRp1758
(I1
(tg12
I00
S'J\xe0\xc4\x05@%o@'
tbag8
(g9
(I0
tS'b'
tRp1759
(I1
(tg12
I00
S'b-\x93g\x9b)r@'
tbag8
(g9
(I0
tS'b'
tRp1760
(I1
(tg12
I00
S'xli\xef\xca\xd8q@'
tbag8
(g9
(I0
tS'b'
tRp1761
(I1
(tg12
I00
S'2%\xbfdM\xbaq@'
tbag8
(g9
(I0
tS'b'
tRp1762
(I1
(tg12
I00
S'"\xfe\xd1\x8b\xb9(r@'
tbag8
(g9
(I0
tS'b'
tRp1763
(I1
(tg12
I00
S'\x88\xc1B((\xfep@'
tbag8
(g9
(I0
tS'b'
tRp1764
(I1
(tg12
I00
S'\x07\x8e\x08\x97\xdb/q@'
tbaa(lp1765
g8
(g9
(I0
tS'b'
tRp1766
(I1
(tg12
I00
S'\xa4Z\xea\xdf\xaeho@'
tbag8
(g9
(I0
tS'b'
tRp1767
(I1
(tg12
I00
S'\xd6\xb4\x90bM]n@'
tbag8
(g9
(I0
tS'b'
tRp1768
(I1
(tg12
I00
S'\x08\x0e.j\xd8jn@'
tbag8
(g9
(I0
tS'b'
tRp1769
(I1
(tg12
I00
S'\xd8T\xcd\xc8\xf8Sp@'
tbag8
(g9
(I0
tS'b'
tRp1770
(I1
(tg12
I00
S'*_\xc9Re\xb4p@'
tbag8
(g9
(I0
tS'b'
tRp1771
(I1
(tg12
I00
S'3\xc6\xa9\x85\x92\x05p@'
tbag8
(g9
(I0
tS'b'
tRp1772
(I1
(tg12
I00
S'\xc0\xc8\x85\xe6\x99/o@'
tbag8
(g9
(I0
tS'b'
tRp1773
(I1
(tg12
I00
S't\xe4\x85\xc6z\xc4p@'
tbag8
(g9
(I0
tS'b'
tRp1774
(I1
(tg12
I00
S'\xe8]\xac.\x0f\x83r@'
tbag8
(g9
(I0
tS'b'
tRp1775
(I1
(tg12
I00
S'\xd4\x90\xfdCc\xbep@'
tbaa(lp1776
g8
(g9
(I0
tS'b'
tRp1777
(I1
(tg12
I00
S'B\x19\xdc\xaf\xd7\xd4m@'
tbag8
(g9
(I0
tS'b'
tRp1778
(I1
(tg12
I00
S'8D\xff2?\xc1o@'
tbag8
(g9
(I0
tS'b'
tRp1779
(I1
(tg12
I00
S'\\qG\x1aj\x01n@'
tbag8
(g9
(I0
tS'b'
tRp1780
(I1
(tg12
I00
S'\x0cW\xb1\xd6\xb2No@'
tbag8
(g9
(I0
tS'b'
tRp1781
(I1
(tg12
I00
S"e2'\xb5>\x80p@"
tbag8
(g9
(I0
tS'b'
tRp1782
(I1
(tg12
I00
S'R`h{\xe4#p@'
tbag8
(g9
(I0
tS'b'
tRp1783
(I1
(tg12
I00
S'$U\xf7\xfbA\x00r@'
tbag8
(g9
(I0
tS'b'
tRp1784
(I1
(tg12
I00
S'8\xa2\x8a\x88vHr@'
tbag8
(g9
(I0
tS'b'
tRp1785
(I1
(tg12
I00
S'\xa2)n\xdb\x9d\xc6n@'
tbag8
(g9
(I0
tS'b'
tRp1786
(I1
(tg12
I00
S'\xa0\x96.\xa4\x93\x18q@'
tbaa(lp1787
g8
(g9
(I0
tS'b'
tRp1788
(I1
(tg12
I00
S'hF\x19\xfe0\x84n@'
tbag8
(g9
(I0
tS'b'
tRp1789
(I1
(tg12
I00
S'\x12O\xbe\xa1%To@'
tbag8
(g9
(I0
tS'b'
tRp1790
(I1
(tg12
I00
S"\xde\x81C'\x9eYo@"
tbag8
(g9
(I0
tS'b'
tRp1791
(I1
(tg12
I00
S'{\xf6[\xf11$o@'
tbag8
(g9
(I0
tS'b'
tRp1792
(I1
(tg12
I00
S'\xe9\x01\x0b\xe2\xf0Uq@'
tbag8
(g9
(I0
tS'b'
tRp1793
(I1
(tg12
I00
S'\xf0\xfeWy\x13\x9cn@'
tbag8
(g9
(I0
tS'b'
tRp1794
(I1
(tg12
I00
S'\xfa/2x\x9b\x11q@'
tbag8
(g9
(I0
tS'b'
tRp1795
(I1
(tg12
I00
S'yc\xd35\xcbTp@'
tbag8
(g9
(I0
tS'b'
tRp1796
(I1
(tg12
I00
S'\xacWC\x02,dn@'
tbag8
(g9
(I0
tS'b'
tRp1797
(I1
(tg12
I00
S'\xfbw\x16\x1c\xf0\x03p@'
tbaa(lp1798
g8
(g9
(I0
tS'b'
tRp1799
(I1
(tg12
I00
S'\xbb\x9e\xb9\xc6\xbf\x8am@'
tbag8
(g9
(I0
tS'b'
tRp1800
(I1
(tg12
I00
S'\x92\xe8-O\xee2n@'
tbag8
(g9
(I0
tS'b'
tRp1801
(I1
(tg12
I00
S'$\x87\xd3\xbb\x88\xedj@'
tbag8
(g9
(I0
tS'b'
tRp1802
(I1
(tg12
I00
S'=\xa0^\xa5\x9e\x95l@'
tbag8
(g9
(I0
tS'b'
tRp1803
(I1
(tg12
I00
S'\x9a\xc0x\xc1\x19\x7fo@'
tbag8
(g9
(I0
tS'b'
tRp1804
(I1
(tg12
I00
S'\x80\x0eW\x81\x15\xe8l@'
tbag8
(g9
(I0
tS'b'
tRp1805
(I1
(tg12
I00
S'\xfa\x1cO3\x0c\xa6m@'
tbag8
(g9
(I0
tS'b'
tRp1806
(I1
(tg12
I00
S'Zg\x04oo\x9bq@'
tbag8
(g9
(I0
tS'b'
tRp1807
(I1
(tg12
I00
S'\xf9\xa0\x1aNO(p@'
tbag8
(g9
(I0
tS'b'
tRp1808
(I1
(tg12
I00
S'\x95\x1bP\x0f|<p@'
tbaa(lp1809
g8
(g9
(I0
tS'b'
tRp1810
(I1
(tg12
I00
S'\x16\xc5\xdaS\xadll@'
tbag8
(g9
(I0
tS'b'
tRp1811
(I1
(tg12
I00
S'\x8a{\xdcF\x00\xa5n@'
tbag8
(g9
(I0
tS'b'
tRp1812
(I1
(tg12
I00
S'H]\x98\x84\xc7\x91m@'
tbag8
(g9
(I0
tS'b'
tRp1813
(I1
(tg12
I00
S' \xefq\xd1B\x0co@'
tbag8
(g9
(I0
tS'b'
tRp1814
(I1
(tg12
I00
S'8\xe0s\xcdFUn@'
tbag8
(g9
(I0
tS'b'
tRp1815
(I1
(tg12
I00
S'\x00-e\xe3g\x10o@'
tbag8
(g9
(I0
tS'b'
tRp1816
(I1
(tg12
I00
S'd\xef\xc5\xa8\x9ebp@'
tbag8
(g9
(I0
tS'b'
tRp1817
(I1
(tg12
I00
S'\x99\x06}\x16[\xb4p@'
tbag8
(g9
(I0
tS'b'
tRp1818
(I1
(tg12
I00
S'\xaeW8\xd4S n@'
tbag8
(g9
(I0
tS'b'
tRp1819
(I1
(tg12
I00
S'U\xfa\x85\xcdw\x91p@'
tbaa(lp1820
g8
(g9
(I0
tS'b'
tRp1821
(I1
(tg12
I00
S'W^*C\xff o@'
tbag8
(g9
(I0
tS'b'
tRp1822
(I1
(tg12
I00
S'uo\xca\xda\xbb\xa3o@'
tbag8
(g9
(I0
tS'b'
tRp1823
(I1
(tg12
I00
S'\xfcr\x91\th\xd8m@'
tbag8
(g9
(I0
tS'b'
tRp1824
(I1
(tg12
I00
S'\x89S \x14e\xe3o@'
tbag8
(g9
(I0
tS'b'
tRp1825
(I1
(tg12
I00
S'\xca\xaf\xb4c\x87#o@'
tbag8
(g9
(I0
tS'b'
tRp1826
(I1
(tg12
I00
S'D\xbd\xd4E\xa7\xf0o@'
tbag8
(g9
(I0
tS'b'
tRp1827
(I1
(tg12
I00
S'V\x83\xb1\r\x8d\xe5n@'
tbag8
(g9
(I0
tS'b'
tRp1828
(I1
(tg12
I00
S'mv\x15A\xe6\x9bp@'
tbag8
(g9
(I0
tS'b'
tRp1829
(I1
(tg12
I00
S'pkD\x90\x02\x88p@'
tbag8
(g9
(I0
tS'b'
tRp1830
(I1
(tg12
I00
S'\x94\x08\xd4\xa6\xaakp@'
tbaa(lp1831
g8
(g9
(I0
tS'b'
tRp1832
(I1
(tg12
I00
S'\xaa\xff\xf7\tz1l@'
tbag8
(g9
(I0
tS'b'
tRp1833
(I1
(tg12
I00
S'\xd0fr\xc3\xc1&l@'
tbag8
(g9
(I0
tS'b'
tRp1834
(I1
(tg12
I00
S'\x03\xb6\x86\xf3\x94\xa5j@'
tbag8
(g9
(I0
tS'b'
tRp1835
(I1
(tg12
I00
S'\x12\x14\xcc=\x14\tn@'
tbag8
(g9
(I0
tS'b'
tRp1836
(I1
(tg12
I00
S'\xe6\xe7>\xc1D p@'
tbag8
(g9
(I0
tS'b'
tRp1837
(I1
(tg12
I00
S'\xdfas\xa9S\x14o@'
tbag8
(g9
(I0
tS'b'
tRp1838
(I1
(tg12
I00
S'\x0c\xa1\xc8\x06\x88\xb5o@'
tbag8
(g9
(I0
tS'b'
tRp1839
(I1
(tg12
I00
S'\x90\xfcc\x92\xeeep@'
tbag8
(g9
(I0
tS'b'
tRp1840
(I1
(tg12
I00
S'\xd4)\xfe_\xf0tp@'
tbag8
(g9
(I0
tS'b'
tRp1841
(I1
(tg12
I00
S'\x88\xeeR\xbbIGq@'
tbaa(lp1842
g8
(g9
(I0
tS'b'
tRp1843
(I1
(tg12
I00
S'\x18tw\xaa\x88em@'
tbag8
(g9
(I0
tS'b'
tRp1844
(I1
(tg12
I00
S'\x1a\xed\xfcY\xe8\xeaj@'
tbag8
(g9
(I0
tS'b'
tRp1845
(I1
(tg12
I00
S'\xde\x9f\x88\xf9\xa9Sl@'
tbag8
(g9
(I0
tS'b'
tRp1846
(I1
(tg12
I00
S'\x01\xe7C\xf9X$n@'
tbag8
(g9
(I0
tS'b'
tRp1847
(I1
(tg12
I00
S'\x90\x0cL\x86\x04\xf2l@'
tbag8
(g9
(I0
tS'b'
tRp1848
(I1
(tg12
I00
S'\x01%\xc8\xe7NHm@'
tbag8
(g9
(I0
tS'b'
tRp1849
(I1
(tg12
I00
S'-\xc5\x18\xa7@\x99p@'
tbag8
(g9
(I0
tS'b'
tRp1850
(I1
(tg12
I00
S'\xce\xd1Z\xa1\x0cBn@'
tbag8
(g9
(I0
tS'b'
tRp1851
(I1
(tg12
I00
S'\xa8\xf6\x84T\xeeNp@'
tbag8
(g9
(I0
tS'b'
tRp1852
(I1
(tg12
I00
S'\x06\x83\xeb\xc05\xa3p@'
tbaa(lp1853
g8
(g9
(I0
tS'b'
tRp1854
(I1
(tg12
I00
S'$\xf0\x14\x90v7l@'
tbag8
(g9
(I0
tS'b'
tRp1855
(I1
(tg12
I00
S'\x1a`\x9cS1\xc7k@'
tbag8
(g9
(I0
tS'b'
tRp1856
(I1
(tg12
I00
S'f\xee\xd5\xa8`\xb4o@'
tbag8
(g9
(I0
tS'b'
tRp1857
(I1
(tg12
I00
S'\xfc\xf3/4Eal@'
tbag8
(g9
(I0
tS'b'
tRp1858
(I1
(tg12
I00
S'\xc5#\t\x1c<uo@'
tbag8
(g9
(I0
tS'b'
tRp1859
(I1
(tg12
I00
S'\xc3\xcb\xc7\xdc"\x1bo@'
tbag8
(g9
(I0
tS'b'
tRp1860
(I1
(tg12
I00
S'n\xed\xc8\x86\xa2\xd2l@'
tbag8
(g9
(I0
tS'b'
tRp1861
(I1
(tg12
I00
S'\xd0\xad\xe2\xa4z\xacn@'
tbag8
(g9
(I0
tS'b'
tRp1862
(I1
(tg12
I00
S'n\x16{\xda\xef\x10p@'
tbag8
(g9
(I0
tS'b'
tRp1863
(I1
(tg12
I00
S'\x9cR\x1b\x90TBo@'
tbaa(lp1864
g8
(g9
(I0
tS'b'
tRp1865
(I1
(tg12
I00
S"'\x88v\x1d\x01\x1co@"
tbag8
(g9
(I0
tS'b'
tRp1866
(I1
(tg12
I00
S'Z\x1a\x99\x9eH\x06l@'
tbag8
(g9
(I0
tS'b'
tRp1867
(I1
(tg12
I00
S'\xa8\xf0\xa23F*m@'
tbag8
(g9
(I0
tS'b'
tRp1868
(I1
(tg12
I00
S'Z/\xd0Y\xeb\x03n@'
tbag8
(g9
(I0
tS'b'
tRp1869
(I1
(tg12
I00
S'l\x0c4T\x8b\xdcn@'
tbag8
(g9
(I0
tS'b'
tRp1870
(I1
(tg12
I00
S'"\xa4\xc8\xaa\x92Xo@'
tbag8
(g9
(I0
tS'b'
tRp1871
(I1
(tg12
I00
S'\xac\x02-\xff\xad\xa0n@'
tbag8
(g9
(I0
tS'b'
tRp1872
(I1
(tg12
I00
S'\xfc\xd2\xc7)\xecYp@'
tbag8
(g9
(I0
tS'b'
tRp1873
(I1
(tg12
I00
S'\x84\x97r\xd0\xa3\x8am@'
tbag8
(g9
(I0
tS'b'
tRp1874
(I1
(tg12
I00
S'\xc6\xb3\xc5\xa9\x1bto@'
tbaa(lp1875
g8
(g9
(I0
tS'b'
tRp1876
(I1
(tg12
I00
S'.\x1f\x0e\x96\xb7\xa2l@'
tbag8
(g9
(I0
tS'b'
tRp1877
(I1
(tg12
I00
S'HT\x10\x03\x04\x1cm@'
tbag8
(g9
(I0
tS'b'
tRp1878
(I1
(tg12
I00
S'v\xb9I`u\xcbi@'
tbag8
(g9
(I0
tS'b'
tRp1879
(I1
(tg12
I00
S'\x902.}+\xeek@'
tbag8
(g9
(I0
tS'b'
tRp1880
(I1
(tg12
I00
S'aN\x0f\xac@\x13q@'
tbag8
(g9
(I0
tS'b'
tRp1881
(I1
(tg12
I00
S'\xda\x98\x15/\xfa\xe6m@'
tbag8
(g9
(I0
tS'b'
tRp1882
(I1
(tg12
I00
S'!\xa2R\x95\x0b\xe8k@'
tbag8
(g9
(I0
tS'b'
tRp1883
(I1
(tg12
I00
S"'\x00\x1eZ\xf48n@"
tbag8
(g9
(I0
tS'b'
tRp1884
(I1
(tg12
I00
S'\x82\xcc7\xd3|cn@'
tbag8
(g9
(I0
tS'b'
tRp1885
(I1
(tg12
I00
S'\x8aT\x8f:hgq@'
tbaa(lp1886
g8
(g9
(I0
tS'b'
tRp1887
(I1
(tg12
I00
S'\xae&jO\xc5\xfbj@'
tbag8
(g9
(I0
tS'b'
tRp1888
(I1
(tg12
I00
S'.\xbeO\xcfZ\xb6o@'
tbag8
(g9
(I0
tS'b'
tRp1889
(I1
(tg12
I00
S'\xf2\x0b\x12\x07\x86Lm@'
tbag8
(g9
(I0
tS'b'
tRp1890
(I1
(tg12
I00
S'J/\x8c.\x9f\x12m@'
tbag8
(g9
(I0
tS'b'
tRp1891
(I1
(tg12
I00
S'\xe6\xfe$\xa7\x84\xbal@'
tbag8
(g9
(I0
tS'b'
tRp1892
(I1
(tg12
I00
S'&\xaf\x15o\xbe\xafl@'
tbag8
(g9
(I0
tS'b'
tRp1893
(I1
(tg12
I00
S'f\x8c\x1d\xec\xb7\xb4n@'
tbag8
(g9
(I0
tS'b'
tRp1894
(I1
(tg12
I00
S'\xa8b\x13q\x8c\x98o@'
tbag8
(g9
(I0
tS'b'
tRp1895
(I1
(tg12
I00
S'\xe0J \xea\xecHn@'
tbag8
(g9
(I0
tS'b'
tRp1896
(I1
(tg12
I00
S'\x1e\xb2\xac<\x18\xb6n@'
tbaa(lp1897
g8
(g9
(I0
tS'b'
tRp1898
(I1
(tg12
I00
S'\x7f\xab\xb3\xb0\xa2\x8an@'
tbag8
(g9
(I0
tS'b'
tRp1899
(I1
(tg12
I00
S'b\xc4\x99\xd9\xd8Ul@'
tbag8
(g9
(I0
tS'b'
tRp1900
(I1
(tg12
I00
S'"T\xe9"\xdftj@'
tbag8
(g9
(I0
tS'b'
tRp1901
(I1
(tg12
I00
S'@x\n\xa7"\xc0l@'
tbag8
(g9
(I0
tS'b'
tRp1902
(I1
(tg12
I00
S'u\x180\xe90\x12m@'
tbag8
(g9
(I0
tS'b'
tRp1903
(I1
(tg12
I00
S'\xa6]T\xf1\xb7hn@'
tbag8
(g9
(I0
tS'b'
tRp1904
(I1
(tg12
I00
S'\x98\xe5e\xa79\x18l@'
tbag8
(g9
(I0
tS'b'
tRp1905
(I1
(tg12
I00
S't\xce\xe7[4\x82m@'
tbag8
(g9
(I0
tS'b'
tRp1906
(I1
(tg12
I00
S'\xd0\xf3\xd6\xda\xcd|n@'
tbag8
(g9
(I0
tS'b'
tRp1907
(I1
(tg12
I00
S'\xd2\x96w\xd8\xdf\xd6o@'
tbaa(lp1908
g8
(g9
(I0
tS'b'
tRp1909
(I1
(tg12
I00
S'C\xde\x14\xa7FWk@'
tbag8
(g9
(I0
tS'b'
tRp1910
(I1
(tg12
I00
S'\x87\\3\xcd\xc8\x8fl@'
tbag8
(g9
(I0
tS'b'
tRp1911
(I1
(tg12
I00
S'\x8a\xf9\xc1\xbeq\xc3l@'
tbag8
(g9
(I0
tS'b'
tRp1912
(I1
(tg12
I00
S'\xde\xed\xba\xa6\xc0\xebk@'
tbag8
(g9
(I0
tS'b'
tRp1913
(I1
(tg12
I00
S'\x1a\xceD\xa6\xda\xacl@'
tbag8
(g9
(I0
tS'b'
tRp1914
(I1
(tg12
I00
S'\x88\xb8\x1f\x93\xa5\xd4m@'
tbag8
(g9
(I0
tS'b'
tRp1915
(I1
(tg12
I00
S"\xb09'}\x05\x1bm@"
tbag8
(g9
(I0
tS'b'
tRp1916
(I1
(tg12
I00
S'\x8d\x10\xecE\x95Go@'
tbag8
(g9
(I0
tS'b'
tRp1917
(I1
(tg12
I00
S'\xeb\x1e\xb5\x17\xff\np@'
tbag8
(g9
(I0
tS'b'
tRp1918
(I1
(tg12
I00
S'\xf04\x84H\xe8Uo@'
tbaa(lp1919
g8
(g9
(I0
tS'b'
tRp1920
(I1
(tg12
I00
S'\x15z\x02\n\x0b\xebk@'
tbag8
(g9
(I0
tS'b'
tRp1921
(I1
(tg12
I00
S'\n7\xf0uvMl@'
tbag8
(g9
(I0
tS'b'
tRp1922
(I1
(tg12
I00
S'H\x13\xed\xe1\x90Hn@'
tbag8
(g9
(I0
tS'b'
tRp1923
(I1
(tg12
I00
S'\x1d\x92\xa7\xcc\x84\x9ao@'
tbag8
(g9
(I0
tS'b'
tRp1924
(I1
(tg12
I00
S'\x94\x84\xaau\x90\x0fl@'
tbag8
(g9
(I0
tS'b'
tRp1925
(I1
(tg12
I00
S'60B\x92A\xf0n@'
tbag8
(g9
(I0
tS'b'
tRp1926
(I1
(tg12
I00
S'\x90\xfd\x9aQ\nBn@'
tbag8
(g9
(I0
tS'b'
tRp1927
(I1
(tg12
I00
S'L}\x95\xe1\xdd(n@'
tbag8
(g9
(I0
tS'b'
tRp1928
(I1
(tg12
I00
S'j\xa2`\x1d\x1d\xebm@'
tbag8
(g9
(I0
tS'b'
tRp1929
(I1
(tg12
I00
S'\x18\xda\x0c\x94Gim@'
tbaa(lp1930
g8
(g9
(I0
tS'b'
tRp1931
(I1
(tg12
I00
S'\xf6\x8f\\\xb5J\xe1k@'
tbag8
(g9
(I0
tS'b'
tRp1932
(I1
(tg12
I00
S'\xe4\x0b\xfc\x9a\x1fgn@'
tbag8
(g9
(I0
tS'b'
tRp1933
(I1
(tg12
I00
S'\x8e\xb0[\xbe\xf2\xb0k@'
tbag8
(g9
(I0
tS'b'
tRp1934
(I1
(tg12
I00
S'40\xfcy3Km@'
tbag8
(g9
(I0
tS'b'
tRp1935
(I1
(tg12
I00
S'?\xff\xae\xb8\xdaMm@'
tbag8
(g9
(I0
tS'b'
tRp1936
(I1
(tg12
I00
S'\x10\xfb\x87\x0b\x1c\x01p@'
tbag8
(g9
(I0
tS'b'
tRp1937
(I1
(tg12
I00
S',\xa9\xdd\xa73\x98j@'
tbag8
(g9
(I0
tS'b'
tRp1938
(I1
(tg12
I00
S'_N\x0b\xdeIdn@'
tbag8
(g9
(I0
tS'b'
tRp1939
(I1
(tg12
I00
S'\xcaH\xfeK\xb3\\m@'
tbag8
(g9
(I0
tS'b'
tRp1940
(I1
(tg12
I00
S'\xa7m3C\xef\x98n@'
tbaa(lp1941
g8
(g9
(I0
tS'b'
tRp1942
(I1
(tg12
I00
S'>.\xb2`\xe0ei@'
tbag8
(g9
(I0
tS'b'
tRp1943
(I1
(tg12
I00
S'\\\n8\xf9R{l@'
tbag8
(g9
(I0
tS'b'
tRp1944
(I1
(tg12
I00
S';ce\x87\x15\xb3l@'
tbag8
(g9
(I0
tS'b'
tRp1945
(I1
(tg12
I00
S'^\xb9\xd5\xeb\xdeak@'
tbag8
(g9
(I0
tS'b'
tRp1946
(I1
(tg12
I00
S'\x16\xbb17\x83\xd0l@'
tbag8
(g9
(I0
tS'b'
tRp1947
(I1
(tg12
I00
S'z\x89\x01\x8f\xff\xf3i@'
tbag8
(g9
(I0
tS'b'
tRp1948
(I1
(tg12
I00
S'\xb1\xb7\xa9\x83EKk@'
tbag8
(g9
(I0
tS'b'
tRp1949
(I1
(tg12
I00
S'H\xcb\xcd\x7f\xa7\x90n@'
tbag8
(g9
(I0
tS'b'
tRp1950
(I1
(tg12
I00
S'\x8a\x85\\(0\xb2n@'
tbag8
(g9
(I0
tS'b'
tRp1951
(I1
(tg12
I00
S'\xb5\xe18-\xac\xf8l@'
tbaa(lp1952
g8
(g9
(I0
tS'b'
tRp1953
(I1
(tg12
I00
S'6sh\x93\x7f\x8ei@'
tbag8
(g9
(I0
tS'b'
tRp1954
(I1
(tg12
I00
S'\x96\xbf]\x0b$\x88m@'
tbag8
(g9
(I0
tS'b'
tRp1955
(I1
(tg12
I00
S'\x06\x9bc\xa1\x163n@'
tbag8
(g9
(I0
tS'b'
tRp1956
(I1
(tg12
I00
S'\xba.Si\xbc\x14o@'
tbag8
(g9
(I0
tS'b'
tRp1957
(I1
(tg12
I00
S'\x0e\x86\xc2\x97l\xc0m@'
tbag8
(g9
(I0
tS'b'
tRp1958
(I1
(tg12
I00
S'FQ\x7f\x8a\xda\x81l@'
tbag8
(g9
(I0
tS'b'
tRp1959
(I1
(tg12
I00
S'\xc6J\x0e|e\xaan@'
tbag8
(g9
(I0
tS'b'
tRp1960
(I1
(tg12
I00
S'\xb4\xe5\xc01>Dn@'
tbag8
(g9
(I0
tS'b'
tRp1961
(I1
(tg12
I00
S'\xda6\x01\xfer\xb6m@'
tbag8
(g9
(I0
tS'b'
tRp1962
(I1
(tg12
I00
S'\x06*\xe6\xc5\xfb6n@'
tbaa(lp1963
g8
(g9
(I0
tS'b'
tRp1964
(I1
(tg12
I00
S':.\x1d<q\x80i@'
tbag8
(g9
(I0
tS'b'
tRp1965
(I1
(tg12
I00
S'\x05\x94\xa5/V\x9di@'
tbag8
(g9
(I0
tS'b'
tRp1966
(I1
(tg12
I00
S'\xdc\xaa+\xa6\xc8bk@'
tbag8
(g9
(I0
tS'b'
tRp1967
(I1
(tg12
I00
S'Z\xfe\xd8\x81\x18|j@'
tbag8
(g9
(I0
tS'b'
tRp1968
(I1
(tg12
I00
S'\xac\xb1a\x83\xf6\xd5i@'
tbag8
(g9
(I0
tS'b'
tRp1969
(I1
(tg12
I00
S'\xf6_\x83:\xc3\x16k@'
tbag8
(g9
(I0
tS'b'
tRp1970
(I1
(tg12
I00
S'\x8chj(\t\x0bm@'
tbag8
(g9
(I0
tS'b'
tRp1971
(I1
(tg12
I00
S'zJ\xaf\xddb\x96m@'
tbag8
(g9
(I0
tS'b'
tRp1972
(I1
(tg12
I00
S'5\xfb\xe3\xa3\xce\x04n@'
tbag8
(g9
(I0
tS'b'
tRp1973
(I1
(tg12
I00
S'\x1e\xf8\x93E.\xabn@'
tbaa(lp1974
g8
(g9
(I0
tS'b'
tRp1975
(I1
(tg12
I00
S'\xf7[n\xbe\xf5\x8ej@'
tbag8
(g9
(I0
tS'b'
tRp1976
(I1
(tg12
I00
S'\x8a\xc6\xeb\xde\xdeEl@'
tbag8
(g9
(I0
tS'b'
tRp1977
(I1
(tg12
I00
S'"%W\xcc\x08!l@'
tbag8
(g9
(I0
tS'b'
tRp1978
(I1
(tg12
I00
S'\x01Ow\xf3\xb5\x00i@'
tbag8
(g9
(I0
tS'b'
tRp1979
(I1
(tg12
I00
S"47'W\xfe\xbfk@"
tbag8
(g9
(I0
tS'b'
tRp1980
(I1
(tg12
I00
S'u\x9fa\x95\xde\xa8m@'
tbag8
(g9
(I0
tS'b'
tRp1981
(I1
(tg12
I00
S'\\~_\x19\x80\x81o@'
tbag8
(g9
(I0
tS'b'
tRp1982
(I1
(tg12
I00
S'\xaa\xe8\xc2\x82\x08\xedm@'
tbag8
(g9
(I0
tS'b'
tRp1983
(I1
(tg12
I00
S'\xde\xf2\xba\xcf\xa8\xe5l@'
tbag8
(g9
(I0
tS'b'
tRp1984
(I1
(tg12
I00
S'z\xb5&\x19q\xdfl@'
tbaa(lp1985
g8
(g9
(I0
tS'b'
tRp1986
(I1
(tg12
I00
S'b\xa7\xafP\xfe\xe6k@'
tbag8
(g9
(I0
tS'b'
tRp1987
(I1
(tg12
I00
S'v\xad\xd8\x89\xccqh@'
tbag8
(g9
(I0
tS'b'
tRp1988
(I1
(tg12
I00
S'\xedR\xe6x\xee\xe7h@'
tbag8
(g9
(I0
tS'b'
tRp1989
(I1
(tg12
I00
S'>\xc2&\xea\xf6\x0fk@'
tbag8
(g9
(I0
tS'b'
tRp1990
(I1
(tg12
I00
S'~.N\r\x86\x88k@'
tbag8
(g9
(I0
tS'b'
tRp1991
(I1
(tg12
I00
S'\xdacS\xe7\xba\x9ei@'
tbag8
(g9
(I0
tS'b'
tRp1992
(I1
(tg12
I00
S'4\xea]\x8d\xbcMj@'
tbag8
(g9
(I0
tS'b'
tRp1993
(I1
(tg12
I00
S'\x80C_C\xf0cj@'
tbag8
(g9
(I0
tS'b'
tRp1994
(I1
(tg12
I00
S'@\x8d9\x1f\xe4\x8al@'
tbag8
(g9
(I0
tS'b'
tRp1995
(I1
(tg12
I00
S'\xc6\xe7\xd2Z&<k@'
tbaa(lp1996
g8
(g9
(I0
tS'b'
tRp1997
(I1
(tg12
I00
S'(R\xb8\xdb\x81\x10i@'
tbag8
(g9
(I0
tS'b'
tRp1998
(I1
(tg12
I00
S'\xde\x1b\xf3\x87\xc7\xe2k@'
tbag8
(g9
(I0
tS'b'
tRp1999
(I1
(tg12
I00
S'\x94\x8dW+\x96\x95h@'
tbag8
(g9
(I0
tS'b'
tRp2000
(I1
(tg12
I00
S'~q\xf4\x8aJ#n@'
tbag8
(g9
(I0
tS'b'
tRp2001
(I1
(tg12
I00
S'\x1c\x8dw\r\xd5\x07l@'
tbag8
(g9
(I0
tS'b'
tRp2002
(I1
(tg12
I00
S'\x81N\xae\xbfo\xc2j@'
tbag8
(g9
(I0
tS'b'
tRp2003
(I1
(tg12
I00
S'\xcc\xc0bb\x8e\xf4j@'
tbag8
(g9
(I0
tS'b'
tRp2004
(I1
(tg12
I00
S'&%08\xe1\x97i@'
tbag8
(g9
(I0
tS'b'
tRp2005
(I1
(tg12
I00
S'\xec\x85\xc5)1\xabn@'
tbag8
(g9
(I0
tS'b'
tRp2006
(I1
(tg12
I00
S'\x86\x82\x0e\xedm\xedj@'
tbaa(lp2007
g8
(g9
(I0
tS'b'
tRp2008
(I1
(tg12
I00
S'\xc4\xe3(\x08p$g@'
tbag8
(g9
(I0
tS'b'
tRp2009
(I1
(tg12
I00
S'\xe6\x8d\xf3\x93`3i@'
tbag8
(g9
(I0
tS'b'
tRp2010
(I1
(tg12
I00
S'zJ\x8d\xc2#Xj@'
tbag8
(g9
(I0
tS'b'
tRp2011
(I1
(tg12
I00
S'\xea;y\xde ck@'
tbag8
(g9
(I0
tS'b'
tRp2012
(I1
(tg12
I00
S'K\xab\x9a\xfb\xfc\x86i@'
tbag8
(g9
(I0
tS'b'
tRp2013
(I1
(tg12
I00
S'\x18\xfe?\xc9rqh@'
tbag8
(g9
(I0
tS'b'
tRp2014
(I1
(tg12
I00
S'$\xf5\xa2\x1e\x980l@'
tbag8
(g9
(I0
tS'b'
tRp2015
(I1
(tg12
I00
S'.`\rH\xd7\xdej@'
tbag8
(g9
(I0
tS'b'
tRp2016
(I1
(tg12
I00
S'bO\x89\xe6q\x02i@'
tbag8
(g9
(I0
tS'b'
tRp2017
(I1
(tg12
I00
S'\x07i\xe5\xef\xef\x1cn@'
tbaa(lp2018
g8
(g9
(I0
tS'b'
tRp2019
(I1
(tg12
I00
S'\x82y\xe0\xb5\r\xddi@'
tbag8
(g9
(I0
tS'b'
tRp2020
(I1
(tg12
I00
S'p\x1b\xad\xc6\x1eji@'
tbag8
(g9
(I0
tS'b'
tRp2021
(I1
(tg12
I00
S'\x90\xf0`%o\xa1k@'
tbag8
(g9
(I0
tS'b'
tRp2022
(I1
(tg12
I00
S'\x10\xd4\xda\xfc\xaf\xfcj@'
tbag8
(g9
(I0
tS'b'
tRp2023
(I1
(tg12
I00
S'\x00\xa0W\x8f}Wj@'
tbag8
(g9
(I0
tS'b'
tRp2024
(I1
(tg12
I00
S'"\x9a\n\xcb\x1dQj@'
tbag8
(g9
(I0
tS'b'
tRp2025
(I1
(tg12
I00
S'\xf0\xec\x88\xb2\xe2\tl@'
tbag8
(g9
(I0
tS'b'
tRp2026
(I1
(tg12
I00
S'b\nJ\xf0\x80\xefi@'
tbag8
(g9
(I0
tS'b'
tRp2027
(I1
(tg12
I00
S'\xd0\\\xe6\x9d\xae\x88i@'
tbag8
(g9
(I0
tS'b'
tRp2028
(I1
(tg12
I00
S'.\xa7\xbd\x9e\nLk@'
tbaa(lp2029
g8
(g9
(I0
tS'b'
tRp2030
(I1
(tg12
I00
S'\xe9\xd3Mu\x15ih@'
tbag8
(g9
(I0
tS'b'
tRp2031
(I1
(tg12
I00
S'\x0e)\xcf\xa4\xfcWh@'
tbag8
(g9
(I0
tS'b'
tRp2032
(I1
(tg12
I00
S'\xcc\xf2\xaab\xdc\x87i@'
tbag8
(g9
(I0
tS'b'
tRp2033
(I1
(tg12
I00
S'$\xe3\xbboV|j@'
tbag8
(g9
(I0
tS'b'
tRp2034
(I1
(tg12
I00
S'\x16r\r0\x0c\xd3l@'
tbag8
(g9
(I0
tS'b'
tRp2035
(I1
(tg12
I00
S'\xdc\xe6 V\xa0)l@'
tbag8
(g9
(I0
tS'b'
tRp2036
(I1
(tg12
I00
S'\x0b\x91\x19\x0c1\xdej@'
tbag8
(g9
(I0
tS'b'
tRp2037
(I1
(tg12
I00
S':\x0f\x86\n^yk@'
tbag8
(g9
(I0
tS'b'
tRp2038
(I1
(tg12
I00
S'\xcc)Q\xf1\xe3\xb8l@'
tbag8
(g9
(I0
tS'b'
tRp2039
(I1
(tg12
I00
S'\xee_\x86m\xb4\xbbo@'
tbaa(lp2040
g8
(g9
(I0
tS'b'
tRp2041
(I1
(tg12
I00
S'\xea\x94\x8fS\xa3zh@'
tbag8
(g9
(I0
tS'b'
tRp2042
(I1
(tg12
I00
S'\xf9\x06\rx\xb7\xb1j@'
tbag8
(g9
(I0
tS'b'
tRp2043
(I1
(tg12
I00
S'/\xabz\xcf\xd3ki@'
tbag8
(g9
(I0
tS'b'
tRp2044
(I1
(tg12
I00
S'*J\xd4\xd0\xdbsk@'
tbag8
(g9
(I0
tS'b'
tRp2045
(I1
(tg12
I00
S'\x1e\xf1NK\\(k@'
tbag8
(g9
(I0
tS'b'
tRp2046
(I1
(tg12
I00
S'\x00Z\x9d\xef\x941k@'
tbag8
(g9
(I0
tS'b'
tRp2047
(I1
(tg12
I00
S'B\x8a\x11\xcd\x89\xe4l@'
tbag8
(g9
(I0
tS'b'
tRp2048
(I1
(tg12
I00
S'\nL\xff\x9c\xf3\xdal@'
tbag8
(g9
(I0
tS'b'
tRp2049
(I1
(tg12
I00
S'T/WW\xbb\xf6h@'
tbag8
(g9
(I0
tS'b'
tRp2050
(I1
(tg12
I00
S'\xb2\xc9\xe1/\xac\xefk@'
tbaa(lp2051
g8
(g9
(I0
tS'b'
tRp2052
(I1
(tg12
I00
S'\x86v\x05\xe3v\x8bk@'
tbag8
(g9
(I0
tS'b'
tRp2053
(I1
(tg12
I00
S'<\x183 \xbb\xf4k@'
tbag8
(g9
(I0
tS'b'
tRp2054
(I1
(tg12
I00
S'\xe6\xd1A\\\xab\xb1j@'
tbag8
(g9
(I0
tS'b'
tRp2055
(I1
(tg12
I00
S'\x87\x1b0\x1a\x0e1j@'
tbag8
(g9
(I0
tS'b'
tRp2056
(I1
(tg12
I00
S'\n%\xe6\x9cW\x07n@'
tbag8
(g9
(I0
tS'b'
tRp2057
(I1
(tg12
I00
S'|L|\xc7\x97\xf7l@'
tbag8
(g9
(I0
tS'b'
tRp2058
(I1
(tg12
I00
S'lK\xd9|r\xe8i@'
tbag8
(g9
(I0
tS'b'
tRp2059
(I1
(tg12
I00
S'\x8aSl\x9f\xf7\x0ek@'
tbag8
(g9
(I0
tS'b'
tRp2060
(I1
(tg12
I00
S'\x81qm^c\x0bj@'
tbag8
(g9
(I0
tS'b'
tRp2061
(I1
(tg12
I00
S'\x87\x10P\xca\x9dwk@'
tbaa(lp2062
g8
(g9
(I0
tS'b'
tRp2063
(I1
(tg12
I00
S'\x10\x05\x11\x00\xf4=j@'
tbag8
(g9
(I0
tS'b'
tRp2064
(I1
(tg12
I00
S'K\xa4\x9a3\xda\xc3k@'
tbag8
(g9
(I0
tS'b'
tRp2065
(I1
(tg12
I00
S'<\xe3j\xf5fii@'
tbag8
(g9
(I0
tS'b'
tRp2066
(I1
(tg12
I00
S'\xa2\xf4\x1dl:\xd9e@'
tbag8
(g9
(I0
tS'b'
tRp2067
(I1
(tg12
I00
S'\x81\x19\xae\xa20Yi@'
tbag8
(g9
(I0
tS'b'
tRp2068
(I1
(tg12
I00
S'\xd8Al\xc29fj@'
tbag8
(g9
(I0
tS'b'
tRp2069
(I1
(tg12
I00
S'\xb8\xde\xfe\xea\x14^j@'
tbag8
(g9
(I0
tS'b'
tRp2070
(I1
(tg12
I00
S'\xd5lH\xd4\xc7\xcck@'
tbag8
(g9
(I0
tS'b'
tRp2071
(I1
(tg12
I00
S'\x8b\x0f\xdcU+\xd9h@'
tbag8
(g9
(I0
tS'b'
tRp2072
(I1
(tg12
I00
S'\xa7\xe5l=\x16:n@'
tbaa(lp2073
g8
(g9
(I0
tS'b'
tRp2074
(I1
(tg12
I00
S'\xe6+\r\x93GAi@'
tbag8
(g9
(I0
tS'b'
tRp2075
(I1
(tg12
I00
S'\x9a|\xa55\xeb\x0eh@'
tbag8
(g9
(I0
tS'b'
tRp2076
(I1
(tg12
I00
S'\xde\x93\xb0\xa1\xba\x9dk@'
tbag8
(g9
(I0
tS'b'
tRp2077
(I1
(tg12
I00
S'T\x14\xe6{ vi@'
tbag8
(g9
(I0
tS'b'
tRp2078
(I1
(tg12
I00
S'\xf9\xc8\xc1A\xac\xc6h@'
tbag8
(g9
(I0
tS'b'
tRp2079
(I1
(tg12
I00
S'|\x99\xf0\x9dTLj@'
tbag8
(g9
(I0
tS'b'
tRp2080
(I1
(tg12
I00
S'\r\xa2\x96\xac\xae\xa2i@'
tbag8
(g9
(I0
tS'b'
tRp2081
(I1
(tg12
I00
S'\x1d|\x1b\xd5\xaawl@'
tbag8
(g9
(I0
tS'b'
tRp2082
(I1
(tg12
I00
S'\xf4\x00\x87z\x10Pk@'
tbag8
(g9
(I0
tS'b'
tRp2083
(I1
(tg12
I00
S'\xee\xdd7\x83I\x9al@'
tbaa(lp2084
g8
(g9
(I0
tS'b'
tRp2085
(I1
(tg12
I00
S'\xb7\xb2GO5Vg@'
tbag8
(g9
(I0
tS'b'
tRp2086
(I1
(tg12
I00
S'm\xfd5\xb7\xf1Hg@'
tbag8
(g9
(I0
tS'b'
tRp2087
(I1
(tg12
I00
S'\x84Y\xf2!\xf4Yj@'
tbag8
(g9
(I0
tS'b'
tRp2088
(I1
(tg12
I00
S'\xb2\xb0\xf5\x92\xba\x0fm@'
tbag8
(g9
(I0
tS'b'
tRp2089
(I1
(tg12
I00
S'\x88P\x07\xe9,7k@'
tbag8
(g9
(I0
tS'b'
tRp2090
(I1
(tg12
I00
S'\xeeFD=\xe3\xf3j@'
tbag8
(g9
(I0
tS'b'
tRp2091
(I1
(tg12
I00
S'M\xe3\x1e\xbex\xd2l@'
tbag8
(g9
(I0
tS'b'
tRp2092
(I1
(tg12
I00
S'%\x85u\xbd\xeeLl@'
tbag8
(g9
(I0
tS'b'
tRp2093
(I1
(tg12
I00
S'@\xa8\xa2d\x1b\x1fi@'
tbag8
(g9
(I0
tS'b'
tRp2094
(I1
(tg12
I00
S'\x00\x01H\xa8\xd0ui@'
tbaa(lp2095
g8
(g9
(I0
tS'b'
tRp2096
(I1
(tg12
I00
S'\x0c\x90b\x14\x1coh@'
tbag8
(g9
(I0
tS'b'
tRp2097
(I1
(tg12
I00
S'\x88XH\xf6\x1e\xcdh@'
tbag8
(g9
(I0
tS'b'
tRp2098
(I1
(tg12
I00
S"\xd3M'a\x14oh@"
tbag8
(g9
(I0
tS'b'
tRp2099
(I1
(tg12
I00
S'\xcc\x1d)\x8ap\x8dh@'
tbag8
(g9
(I0
tS'b'
tRp2100
(I1
(tg12
I00
S'\x16\xd5\xd2\x89[\xf0i@'
tbag8
(g9
(I0
tS'b'
tRp2101
(I1
(tg12
I00
S'\xff\xe7<n\xf8<j@'
tbag8
(g9
(I0
tS'b'
tRp2102
(I1
(tg12
I00
S'\xda\xe5?\x92\xc6\x9ek@'
tbag8
(g9
(I0
tS'b'
tRp2103
(I1
(tg12
I00
S'DzY\x82\xcd\x06l@'
tbag8
(g9
(I0
tS'b'
tRp2104
(I1
(tg12
I00
S't\xd0\xd2\x055\x9al@'
tbag8
(g9
(I0
tS'b'
tRp2105
(I1
(tg12
I00
S'\x07MQ\xfc\r\xa3j@'
tbaa(lp2106
g8
(g9
(I0
tS'b'
tRp2107
(I1
(tg12
I00
S"H'\xed\xc2\xd0ch@"
tbag8
(g9
(I0
tS'b'
tRp2108
(I1
(tg12
I00
S'\x98\xfc\x14\x8e[\xd7g@'
tbag8
(g9
(I0
tS'b'
tRp2109
(I1
(tg12
I00
S'\xc4\x1f\xd1\x8e\xe6Hg@'
tbag8
(g9
(I0
tS'b'
tRp2110
(I1
(tg12
I00
S'\x86W\xfemh\xdeg@'
tbag8
(g9
(I0
tS'b'
tRp2111
(I1
(tg12
I00
S'&\x14\xa4M\x9f\xb4i@'
tbag8
(g9
(I0
tS'b'
tRp2112
(I1
(tg12
I00
S'K\xe3\xb8\x971\xaef@'
tbag8
(g9
(I0
tS'b'
tRp2113
(I1
(tg12
I00
S'\xdc}\x9ez\xbc\xa0i@'
tbag8
(g9
(I0
tS'b'
tRp2114
(I1
(tg12
I00
S'\xd0_\x9b\xa3"dg@'
tbag8
(g9
(I0
tS'b'
tRp2115
(I1
(tg12
I00
S'\xae\x91\x17\x86\xb5Wi@'
tbag8
(g9
(I0
tS'b'
tRp2116
(I1
(tg12
I00
S'd%=#\xf7\xc1j@'
tbaa(lp2117
g8
(g9
(I0
tS'b'
tRp2118
(I1
(tg12
I00
S'\xf0\xf5\xe5\xaf\x81Li@'
tbag8
(g9
(I0
tS'b'
tRp2119
(I1
(tg12
I00
S'\n0<{-\xf6e@'
tbag8
(g9
(I0
tS'b'
tRp2120
(I1
(tg12
I00
S'\xc8o6&\x1c\x8di@'
tbag8
(g9
(I0
tS'b'
tRp2121
(I1
(tg12
I00
S'\x8f\x10t\xeb\xcd.h@'
tbag8
(g9
(I0
tS'b'
tRp2122
(I1
(tg12
I00
S'\xea\xc6\xff\xaf\x0e\xd3h@'
tbag8
(g9
(I0
tS'b'
tRp2123
(I1
(tg12
I00
S'\x0e\x80I\x84\x05|l@'
tbag8
(g9
(I0
tS'b'
tRp2124
(I1
(tg12
I00
S"\n'\x14\x16\xc0\xbbj@"
tbag8
(g9
(I0
tS'b'
tRp2125
(I1
(tg12
I00
S'\x0e\x17\xf9r$\xdaj@'
tbag8
(g9
(I0
tS'b'
tRp2126
(I1
(tg12
I00
S'"\x94\x91\xd3\x0c\xbag@'
tbag8
(g9
(I0
tS'b'
tRp2127
(I1
(tg12
I00
S'|\xd5$\x8b\x82\xdaj@'
tbaa(lp2128
g8
(g9
(I0
tS'b'
tRp2129
(I1
(tg12
I00
S'6D\x16W\xd5\xcdh@'
tbag8
(g9
(I0
tS'b'
tRp2130
(I1
(tg12
I00
S'\xae\xcc\xfd7\xefFh@'
tbag8
(g9
(I0
tS'b'
tRp2131
(I1
(tg12
I00
S'\xe1\xac.\x00q\xfaj@'
tbag8
(g9
(I0
tS'b'
tRp2132
(I1
(tg12
I00
S'\xe8\x9al\x80c&i@'
tbag8
(g9
(I0
tS'b'
tRp2133
(I1
(tg12
I00
S'\xa0q\xb5\xdc*3j@'
tbag8
(g9
(I0
tS'b'
tRp2134
(I1
(tg12
I00
S'\x12\x0fK\xbd\x0eMj@'
tbag8
(g9
(I0
tS'b'
tRp2135
(I1
(tg12
I00
S'\xf9s\xe0\x87\xeb j@'
tbag8
(g9
(I0
tS'b'
tRp2136
(I1
(tg12
I00
S'i\x05\x04\xf3\x87\x11l@'
tbag8
(g9
(I0
tS'b'
tRp2137
(I1
(tg12
I00
S'R\x10\xfb\xfeO\x96j@'
tbag8
(g9
(I0
tS'b'
tRp2138
(I1
(tg12
I00
S'H\xc1\xe4R_\x03m@'
tbaa(lp2139
g8
(g9
(I0
tS'b'
tRp2140
(I1
(tg12
I00
S'\x801\x9b\x99/ e@'
tbag8
(g9
(I0
tS'b'
tRp2141
(I1
(tg12
I00
S'\x0e\xce\x93\x96 nd@'
tbag8
(g9
(I0
tS'b'
tRp2142
(I1
(tg12
I00
S'!\xb3F\xf36\xd9i@'
tbag8
(g9
(I0
tS'b'
tRp2143
(I1
(tg12
I00
S'\x12\xa1\xd2\xadG\xf9g@'
tbag8
(g9
(I0
tS'b'
tRp2144
(I1
(tg12
I00
S'\xe7pF\xa8v\x1dj@'
tbag8
(g9
(I0
tS'b'
tRp2145
(I1
(tg12
I00
S't\r\x02\xf2\xd1\xb5h@'
tbag8
(g9
(I0
tS'b'
tRp2146
(I1
(tg12
I00
S'\xact\x19\x94vLj@'
tbag8
(g9
(I0
tS'b'
tRp2147
(I1
(tg12
I00
S'"qt\xc6\xe8\xcej@'
tbag8
(g9
(I0
tS'b'
tRp2148
(I1
(tg12
I00
S'\xcdE\xe3\xd9\x97\xa8j@'
tbag8
(g9
(I0
tS'b'
tRp2149
(I1
(tg12
I00
S'\x11qF\x04\x8c\x14j@'
tbaa(lp2150
g8
(g9
(I0
tS'b'
tRp2151
(I1
(tg12
I00
S'Li\xd1\xa2x\x82f@'
tbag8
(g9
(I0
tS'b'
tRp2152
(I1
(tg12
I00
S'~\xd9\x00\x84\x81\xc1i@'
tbag8
(g9
(I0
tS'b'
tRp2153
(I1
(tg12
I00
S'\x048X\x88\xdfWd@'
tbag8
(g9
(I0
tS'b'
tRp2154
(I1
(tg12
I00
S'\x88Fzd\x1c\xc9k@'
tbag8
(g9
(I0
tS'b'
tRp2155
(I1
(tg12
I00
S'.\xb0j\x97\xa5\xa0f@'
tbag8
(g9
(I0
tS'b'
tRp2156
(I1
(tg12
I00
S'0\xf0/p\x06\xddj@'
tbag8
(g9
(I0
tS'b'
tRp2157
(I1
(tg12
I00
S'\x05\x9ba\xdc\x91\x08l@'
tbag8
(g9
(I0
tS'b'
tRp2158
(I1
(tg12
I00
S'\x1a\xb1\xc8\xa3\xf5(k@'
tbag8
(g9
(I0
tS'b'
tRp2159
(I1
(tg12
I00
S'\\\x1f\x98\x80\xbf.j@'
tbag8
(g9
(I0
tS'b'
tRp2160
(I1
(tg12
I00
S'\xcb\xc0\xc9@{\xddl@'
tbaa(lp2161
g8
(g9
(I0
tS'b'
tRp2162
(I1
(tg12
I00
S'\x90\xa3\x8e\xb58\xf3f@'
tbag8
(g9
(I0
tS'b'
tRp2163
(I1
(tg12
I00
S'\xe86\xc6\xa6v\xbbf@'
tbag8
(g9
(I0
tS'b'
tRp2164
(I1
(tg12
I00
S'\xbc\x1eG|\x00Zg@'
tbag8
(g9
(I0
tS'b'
tRp2165
(I1
(tg12
I00
S'\x9e\xc3\xa0\xfeGwg@'
tbag8
(g9
(I0
tS'b'
tRp2166
(I1
(tg12
I00
S'\x80\x14/g\r\x1dh@'
tbag8
(g9
(I0
tS'b'
tRp2167
(I1
(tg12
I00
S'\x9eB\x13\xb2WSh@'
tbag8
(g9
(I0
tS'b'
tRp2168
(I1
(tg12
I00
S'\x80\x9dI\x0f\x9f\xa5i@'
tbag8
(g9
(I0
tS'b'
tRp2169
(I1
(tg12
I00
S'\x15\x1d\xca\x82(\xcei@'
tbag8
(g9
(I0
tS'b'
tRp2170
(I1
(tg12
I00
S'\xe2wo\xd5Lck@'
tbag8
(g9
(I0
tS'b'
tRp2171
(I1
(tg12
I00
S'\xaa(\xe4\xf0-\xf5l@'
tbaa(lp2172
g8
(g9
(I0
tS'b'
tRp2173
(I1
(tg12
I00
S'j\x19\xfe\xab\x9eEg@'
tbag8
(g9
(I0
tS'b'
tRp2174
(I1
(tg12
I00
S'M\xecq\xb0\xbd\xb6j@'
tbag8
(g9
(I0
tS'b'
tRp2175
(I1
(tg12
I00
S'k^\xb0i`\x08i@'
tbag8
(g9
(I0
tS'b'
tRp2176
(I1
(tg12
I00
S'j\x86\xff\xcf\xe1\x8ci@'
tbag8
(g9
(I0
tS'b'
tRp2177
(I1
(tg12
I00
S'~\x81\xbf\xbeo\xbbg@'
tbag8
(g9
(I0
tS'b'
tRp2178
(I1
(tg12
I00
S'\x16\xeeE\x9b\xb7Qh@'
tbag8
(g9
(I0
tS'b'
tRp2179
(I1
(tg12
I00
S'lX\x05\x99\xca\x8fi@'
tbag8
(g9
(I0
tS'b'
tRp2180
(I1
(tg12
I00
S'\xd3\xed\x13~T\x8cl@'
tbag8
(g9
(I0
tS'b'
tRp2181
(I1
(tg12
I00
S'x.\xab2\xae\xdfi@'
tbag8
(g9
(I0
tS'b'
tRp2182
(I1
(tg12
I00
S'f\xbd\xad-\\\xf7i@'
tbaa(lp2183
g8
(g9
(I0
tS'b'
tRp2184
(I1
(tg12
I00
S'J2[\xbd\xb3\xcfh@'
tbag8
(g9
(I0
tS'b'
tRp2185
(I1
(tg12
I00
S'\x92\x87\x94\x16\xf8\x90j@'
tbag8
(g9
(I0
tS'b'
tRp2186
(I1
(tg12
I00
S'\xfa\x8a\x8e}\\\x1bj@'
tbag8
(g9
(I0
tS'b'
tRp2187
(I1
(tg12
I00
S'\xd8\xb0\xb4\xbf\x02\x7fj@'
tbag8
(g9
(I0
tS'b'
tRp2188
(I1
(tg12
I00
S'\xa9\x99N\xa9\xc1\xd5f@'
tbag8
(g9
(I0
tS'b'
tRp2189
(I1
(tg12
I00
S'\xbe\x19\x7f]\x11\x8eg@'
tbag8
(g9
(I0
tS'b'
tRp2190
(I1
(tg12
I00
S'\x93\xabwo\xf2mi@'
tbag8
(g9
(I0
tS'b'
tRp2191
(I1
(tg12
I00
S'\xe63t\xa1(\xe0j@'
tbag8
(g9
(I0
tS'b'
tRp2192
(I1
(tg12
I00
S'\x14\xa0\x06\xa4\xc4\x12i@'
tbag8
(g9
(I0
tS'b'
tRp2193
(I1
(tg12
I00
S':\x8fS\x91m\xb5g@'
tbaa(lp2194
g8
(g9
(I0
tS'b'
tRp2195
(I1
(tg12
I00
S'\xcf\xaa\r\xeb\xc9\x95f@'
tbag8
(g9
(I0
tS'b'
tRp2196
(I1
(tg12
I00
S'&q\xfaP\x96Uh@'
tbag8
(g9
(I0
tS'b'
tRp2197
(I1
(tg12
I00
S'8\xe0\xf82,\xdej@'
tbag8
(g9
(I0
tS'b'
tRp2198
(I1
(tg12
I00
S'8\x1c\x1e\x0e\rDh@'
tbag8
(g9
(I0
tS'b'
tRp2199
(I1
(tg12
I00
S'\xe2g\xc4\xf7\xdc\x14h@'
tbag8
(g9
(I0
tS'b'
tRp2200
(I1
(tg12
I00
S'\xa2\x80I\x87\x88\x1dg@'
tbag8
(g9
(I0
tS'b'
tRp2201
(I1
(tg12
I00
S'J(\xf1<\xeeqj@'
tbag8
(g9
(I0
tS'b'
tRp2202
(I1
(tg12
I00
S'\x96\xfd)\xf4\x07\xbbk@'
tbag8
(g9
(I0
tS'b'
tRp2203
(I1
(tg12
I00
S'\xec\xb9\xc4\xfe\x0cpl@'
tbag8
(g9
(I0
tS'b'
tRp2204
(I1
(tg12
I00
S'"\x0e\xe6\xa7\x88\xa7h@'
tbaa(lp2205
g8
(g9
(I0
tS'b'
tRp2206
(I1
(tg12
I00
S'$\xe8\xde}\xb8\xbch@'
tbag8
(g9
(I0
tS'b'
tRp2207
(I1
(tg12
I00
S'\xbc\x1a\x10\xc8*\x93h@'
tbag8
(g9
(I0
tS'b'
tRp2208
(I1
(tg12
I00
S'\x94`\x93\xcb\xd4ui@'
tbag8
(g9
(I0
tS'b'
tRp2209
(I1
(tg12
I00
S'\x90\xa5\x808\x04\xa0g@'
tbag8
(g9
(I0
tS'b'
tRp2210
(I1
(tg12
I00
S'\xa6C\xdd\x9a\x01\xbfh@'
tbag8
(g9
(I0
tS'b'
tRp2211
(I1
(tg12
I00
S'\x8f \xac\x80\xa0\xa4g@'
tbag8
(g9
(I0
tS'b'
tRp2212
(I1
(tg12
I00
S'H\xcf2\xcc)\x95h@'
tbag8
(g9
(I0
tS'b'
tRp2213
(I1
(tg12
I00
S'\xdei\xae\x12]<l@'
tbag8
(g9
(I0
tS'b'
tRp2214
(I1
(tg12
I00
S'\x9bS\xcc\t5di@'
tbag8
(g9
(I0
tS'b'
tRp2215
(I1
(tg12
I00
S'\xe0\xcbCl\xc6_k@'
tbaa(lp2216
g8
(g9
(I0
tS'b'
tRp2217
(I1
(tg12
I00
S'|\x9a\x81c\x11Gf@'
tbag8
(g9
(I0
tS'b'
tRp2218
(I1
(tg12
I00
S"f\xd2\x17R'\xd8f@"
tbag8
(g9
(I0
tS'b'
tRp2219
(I1
(tg12
I00
S')\x16%\r\xd9\xdaf@'
tbag8
(g9
(I0
tS'b'
tRp2220
(I1
(tg12
I00
S'\xc4\x11\xd3\x84\xe2\x13j@'
tbag8
(g9
(I0
tS'b'
tRp2221
(I1
(tg12
I00
S'.\xa5\x04\xb8V`h@'
tbag8
(g9
(I0
tS'b'
tRp2222
(I1
(tg12
I00
S'8\xbe\xe4:Bxi@'
tbag8
(g9
(I0
tS'b'
tRp2223
(I1
(tg12
I00
S't\xcc=c%\x1ag@'
tbag8
(g9
(I0
tS'b'
tRp2224
(I1
(tg12
I00
S't\x0e\xab\x8b$\x98k@'
tbag8
(g9
(I0
tS'b'
tRp2225
(I1
(tg12
I00
S'W7\xbf\xc4\xeb\x94i@'
tbag8
(g9
(I0
tS'b'
tRp2226
(I1
(tg12
I00
S'\xa9\xe1\xa70\xfc\xf6g@'
tbaa(lp2227
g8
(g9
(I0
tS'b'
tRp2228
(I1
(tg12
I00
S'p\x93\xd3R\xf7\xfcf@'
tbag8
(g9
(I0
tS'b'
tRp2229
(I1
(tg12
I00
S'\xa2l\x0b\x8a\x05\x08e@'
tbag8
(g9
(I0
tS'b'
tRp2230
(I1
(tg12
I00
S'\xfa\x8dM4t\x05g@'
tbag8
(g9
(I0
tS'b'
tRp2231
(I1
(tg12
I00
S'3\xddCf\x8a#h@'
tbag8
(g9
(I0
tS'b'
tRp2232
(I1
(tg12
I00
S'\xf7\xa0\xf4\x88\x8fDf@'
tbag8
(g9
(I0
tS'b'
tRp2233
(I1
(tg12
I00
S'fQ\xac&\x14\x89i@'
tbag8
(g9
(I0
tS'b'
tRp2234
(I1
(tg12
I00
S'{$\xf8(\xa8{h@'
tbag8
(g9
(I0
tS'b'
tRp2235
(I1
(tg12
I00
S'Rg\x90\xc9^&i@'
tbag8
(g9
(I0
tS'b'
tRp2236
(I1
(tg12
I00
S'\x8aXo\x93\xb3\xa6l@'
tbag8
(g9
(I0
tS'b'
tRp2237
(I1
(tg12
I00
S'L\xe4\x9a\x8dV\x1dh@'
tbaa(lp2238
g8
(g9
(I0
tS'b'
tRp2239
(I1
(tg12
I00
S'\xf4\x8eO{-\xddf@'
tbag8
(g9
(I0
tS'b'
tRp2240
(I1
(tg12
I00
S'\xea \xe6\x0bO\xe9f@'
tbag8
(g9
(I0
tS'b'
tRp2241
(I1
(tg12
I00
S'\xde\xed\x07\x8e\xe6Lh@'
tbag8
(g9
(I0
tS'b'
tRp2242
(I1
(tg12
I00
S'\xaa\x0e\x7fg\xb4\x03i@'
tbag8
(g9
(I0
tS'b'
tRp2243
(I1
(tg12
I00
S'jY\x8d\x14 \x81h@'
tbag8
(g9
(I0
tS'b'
tRp2244
(I1
(tg12
I00
S'(\x93\x83\xb5\xa0fg@'
tbag8
(g9
(I0
tS'b'
tRp2245
(I1
(tg12
I00
S'>0(\xe0Z\x92i@'
tbag8
(g9
(I0
tS'b'
tRp2246
(I1
(tg12
I00
S' \xe4\x90*\x17~h@'
tbag8
(g9
(I0
tS'b'
tRp2247
(I1
(tg12
I00
S'\x88\xcaH%\xd2!l@'
tbag8
(g9
(I0
tS'b'
tRp2248
(I1
(tg12
I00
S'$c\x00\xd7G\xa2h@'
tbaa(lp2249
g8
(g9
(I0
tS'b'
tRp2250
(I1
(tg12
I00
S'@<\xe3\xaaE\x0ef@'
tbag8
(g9
(I0
tS'b'
tRp2251
(I1
(tg12
I00
S'\xda\xe8\x93H\xcd\x93h@'
tbag8
(g9
(I0
tS'b'
tRp2252
(I1
(tg12
I00
S'\n\xb3\x0b\xa7\x9f\xffg@'
tbag8
(g9
(I0
tS'b'
tRp2253
(I1
(tg12
I00
S'*x\x16\xb9!tg@'
tbag8
(g9
(I0
tS'b'
tRp2254
(I1
(tg12
I00
S'\x9c\xd1a\x11\xb3\xd0k@'
tbag8
(g9
(I0
tS'b'
tRp2255
(I1
(tg12
I00
S'\xde\xcep\xd9\xd3\xb9h@'
tbag8
(g9
(I0
tS'b'
tRp2256
(I1
(tg12
I00
S'g\xc1\x95\x86\x01\xe9i@'
tbag8
(g9
(I0
tS'b'
tRp2257
(I1
(tg12
I00
S'\xe26\xf6\x0c\x8d]i@'
tbag8
(g9
(I0
tS'b'
tRp2258
(I1
(tg12
I00
S'\x854\x00\x80k\xafj@'
tbag8
(g9
(I0
tS'b'
tRp2259
(I1
(tg12
I00
S'\xc6E\x96\x16R\x17j@'
tbaa(lp2260
g8
(g9
(I0
tS'b'
tRp2261
(I1
(tg12
I00
S'\xb0[2(\x8d\x8eg@'
tbag8
(g9
(I0
tS'b'
tRp2262
(I1
(tg12
I00
S'K\xd19,\x18\x9fg@'
tbag8
(g9
(I0
tS'b'
tRp2263
(I1
(tg12
I00
S'\xb4\x88`C\x00)h@'
tbag8
(g9
(I0
tS'b'
tRp2264
(I1
(tg12
I00
S'8M\xcf_\xca\xb3h@'
tbag8
(g9
(I0
tS'b'
tRp2265
(I1
(tg12
I00
S'\x0cF\x94q\xbc\xfee@'
tbag8
(g9
(I0
tS'b'
tRp2266
(I1
(tg12
I00
S'A\xf5\x05p\x98\xd7i@'
tbag8
(g9
(I0
tS'b'
tRp2267
(I1
(tg12
I00
S'b\x1d\xac\xe95pl@'
tbag8
(g9
(I0
tS'b'
tRp2268
(I1
(tg12
I00
S'\xfeJ\xce\xa7g}k@'
tbag8
(g9
(I0
tS'b'
tRp2269
(I1
(tg12
I00
S'\xdc\x9e\x82[\xfa%h@'
tbag8
(g9
(I0
tS'b'
tRp2270
(I1
(tg12
I00
S'\x88\xae\xb7f\xf8"i@'
tbaasS'path'
p2271
V/home/pasquale/models_optimization_v1//wn_opt/wn_ADADELTA_7_20150320-191309_0.pkl
p2272
sS'best'
p2273
(dp2274
s.